(dp0
S'raining'
p1
I4807
sS'foul'
p2
I5601
sS'four'
p3
I1292
sS'woods'
p4
I4217
sS'hanging'
p5
I1820
sS'looking'
p6
I244
sS'lord'
p7
I1474
sS'yellow'
p8
I3011
sS'bringing'
p9
I1389
sS'prize'
p10
I3665
sS'wednesday'
p11
I1585
sS'oooh'
p12
I4555
sS'straight'
p13
I767
sS'tired'
p14
I983
sS'miller'
p15
I3985
sS'bacon'
p16
I2590
sS'second'
p17
I542
sS'errors'
p18
I5509
sS'cooking'
p19
I2886
sS'fingers'
p20
I2060
sS'hero'
p21
I2101
sS'reporter'
p22
I2640
sS'brainwashed'
p23
I5580
sS'here'
p24
I107
sS'reported'
p25
I2222
sS'china'
p26
I1914
sS'hers'
p27
I5697
sS'kids'
p28
I478
sS'k'
p29
I1699
sS'reports'
p30
I2208
sS"i'd"
p31
I339
sS'military'
p32
I1844
sS"i'm"
p33
I35
sS'criticism'
p34
I3972
sS'golden'
p35
I2565
sS'replace'
p36
I2758
sS'brought'
p37
I1156
sS'cocaine'
p38
I3992
sS'unit'
p39
I5255
sS'cheating'
p40
I2924
sS'dna'
p41
I5103
sS'spoke'
p42
I3031
sS'dnc'
p43
I3028
sS'music'
p44
I446
sS'therefore'
p45
I4596
sS'strike'
p46
I3768
sS'until'
p47
I393
sS'females'
p48
I4692
sS'holy'
p49
I742
sS'relax'
p50
I3551
sS'successful'
p51
I2387
sS'brings'
p52
I2228
sS'holt'
p53
I1450
sS'yahoo'
p54
I4256
sS'hurt'
p55
I847
sS'glass'
p56
I1908
sS'90'
p57
I2702
sS'hole'
p58
I2265
sS'hold'
p59
I809
sS'locked'
p60
I2539
sS'locker'
p61
I5706
sS'example'
p62
I1598
sS'owes'
p63
I4580
sS'british'
p64
I3424
sS'want'
p65
I113
sS'honest'
p66
I1387
sS'absolute'
p67
I2505
sS'hoe'
p68
I2201
sS'complaining'
p69
I3352
sS'travel'
p70
I1569
sS'feature'
p71
I1840
sS'machine'
p72
I1796
sS'how'
p73
I56
sS'hot'
p74
I442
sS'hop'
p75
I2777
sS'place'
p76
I421
sS'gaming'
p77
I4791
sS'beauty'
p78
I1583
sS'wrong'
p79
I298
sS'types'
p80
I3651
sS'effective'
p81
I3495
sS'wins'
p82
I998
sS'fictional'
p83
I3638
sS'keeps'
p84
I1239
sS'democratic'
p85
I2993
sS'wing'
p86
I2637
sS'wind'
p87
I3353
sS'wine'
p88
I1139
sS'feedback'
p89
I3154
sS'fit'
p90
I1399
sS'aleppo'
p91
I4497
sS'screaming'
p92
I1867
sS'fix'
p93
I1024
sS'hidden'
p94
I5003
sS'easier'
p95
I1968
sS'thrones'
p96
I5836
sS'effects'
p97
I4626
sS'schools'
p98
I2619
sS'silver'
p99
I4267
sS'represents'
p100
I5373
sS'addicted'
p101
I5015
sS'financial'
p102
I3063
sS'series'
p103
I863
sS'allah'
p104
I4822
sS'spider'
p105
I5737
sS"we'd"
p106
I2476
sS'ring'
p107
I2003
sS'whip'
p108
I4987
sS'rt'
p109
I430
sS'trending'
p110
I3385
sS're'
p111
I1667
sS'encourage'
p112
I4653
sS'rb'
p113
I5317
sS'smh'
p114
I429
sS'rn'
p115
I614
sS'millions'
p116
I1725
sS'foundation'
p117
I904
sS'threatened'
p118
I4616
sS'ian'
p119
I4919
sS'ate'
p120
I1697
sS'ups'
p121
I3951
sS'silicon'
p122
I4272
sS'shipped'
p123
I5172
sS'levels'
p124
I3540
sS"today's"
p125
I1421
sS'clothes'
p126
I1973
sS'channels'
p127
I4756
sS'wash'
p128
I3480
sS'basketball'
p129
I2611
sS'service'
p130
I907
sS'engagement'
p131
I5670
sS'needed'
p132
I789
sS'master'
p133
I2730
sS'listed'
p134
I4715
sS'legs'
p135
I2442
sS'bitter'
p136
I4930
sS'listen'
p137
I520
sS'collapse'
p138
I5042
sS'wisdom'
p139
I4180
sS'trek'
p140
I5934
sS'showed'
p141
I1554
sS'coward'
p142
I4251
sS'tree'
p143
I2501
sS'nations'
p144
I5179
sS'project'
p145
I1158
sS'pneumonia'
p146
I3818
sS'feeling'
p147
I664
sS'boston'
p148
I2425
sS'corny'
p149
I4281
sS'\xf0\x9f\x98\xad\xf0\x9f\x98\x82'
p150
I5287
sS'dozen'
p151
I5545
sS'affairs'
p152
I5581
sS'responsible'
p153
I2196
sS'recommended'
p154
I4870
sS'causing'
p155
I5528
sS'doors'
p156
I3993
sS'\xf0\x9f\x98\xad\xf0\x9f\x98\xad'
p157
I1600
sS'shall'
p158
I1984
sS'thrilled'
p159
I3938
sS'doin'
p160
I3210
sS'wells'
p161
I3195
sS'mouth'
p162
I1062
sS'letter'
p163
I2697
sS'organization'
p164
I3321
sS'dummy'
p165
I5203
sS'episode'
p166
I725
sS'released'
p167
I1562
sS'professor'
p168
I2638
sS'camp'
p169
I2124
sS'tech'
p170
I1355
sS'doesn\xe2\x80\x99t'
p171
I2195
sS'scream'
p172
I3576
sS'came'
p173
I545
sS'marvel'
p174
I4736
sS'saying'
p175
I348
sS'bomb'
p176
I953
sS'meetings'
p177
I4170
sS'sexist'
p178
I2963
sS'participate'
p179
I5602
sS'tempted'
p180
I5582
sS'lessons'
p181
I4486
sS'busy'
p182
I1081
sS'headline'
p183
I3115
sS'menu'
p184
I4487
sS'bust'
p185
I4433
sS'than'
p186
I122
sS'rihanna'
p187
I4907
sS'bush'
p188
I1241
sS'touched'
p189
I4979
sS'rich'
p190
I1325
sS'rice'
p191
I2712
sS'plate'
p192
I3095
sS'pocket'
p193
I3073
sS'net'
p194
I3499
sS'unfortunately'
p195
I1263
sS'nicely'
p196
I4304
sS'patch'
p197
I4530
sS'piggy'
p198
I5874
sS'release'
p199
I962
sS'respond'
p200
I1961
sS'blew'
p201
I3211
sS'disaster'
p202
I2890
sS'fair'
p203
I838
sS'goodnight'
p204
I2180
sS'result'
p205
I3033
sS'fail'
p206
I2399
sS'best'
p207
I134
sS'lots'
p208
I817
sS'irs'
p209
I5288
sS'rings'
p210
I4187
sS'score'
p211
I1561
sS'irl'
p212
I4177
sS'wage'
p213
I5104
sS'men'
p214
I649
sS'nature'
p215
I3323
sS'rolled'
p216
I4810
sS'wtf'
p217
I532
sS'wth'
p218
I3888
sS'debt'
p219
I2691
sS'accident'
p220
I2534
sS'country'
p221
I466
sS'pitt'
p222
I4155
sS'planned'
p223
I3384
sS'lookin'
p224
I2676
sS'logic'
p225
I2434
sS'argue'
p226
I2156
sS'asked'
p227
I712
sS'30th'
p228
I5690
sS'irresponsible'
p229
I4972
sS'2nd'
p230
I1137
sS'cult'
p231
I4397
sS'diff'
p232
I4371
sS'blonde'
p233
I3890
sS'101'
p234
I4925
sS'angel'
p235
I2613
sS'union'
p236
I2695
sS'.'
p237
I2
sS'much'
p238
I109
sS'stadium'
p239
I2315
sS'privilege'
p240
I3196
sS'incompetent'
p241
I5929
sS'life'
p242
I187
sS'crying'
p243
I854
sS'spit'
p244
I4627
sS'dave'
p245
I2954
sS'substance'
p246
I5411
sS'child'
p247
I822
sS'worked'
p248
I1082
sS'haters'
p249
I3272
sS'spin'
p250
I2652
sS'cunt'
p251
I4817
sS'chill'
p252
I1094
sS'presidency'
p253
I2576
sS'played'
p254
I746
sS'player'
p255
I1112
sS'campaigning'
p256
I5214
sS'trusted'
p257
I5550
sS'things'
p258
I245
sS'split'
p259
I2735
sS'babies'
p260
I2378
sS'toasted'
p261
I5769
sS'european'
p262
I5204
sS'fairly'
p263
I4201
sS'tops'
p264
I5412
sS'tune'
p265
I625
sS'!!!!!!!!'
p266
I4734
sS'\xf0\x9f\x99\x84\xf0\x9f\x99\x84\xf0\x9f\x99\x84'
p267
I5624
sS'corporate'
p268
I3324
sS'opinions'
p269
I2188
sS'sleepy'
p270
I5731
sS'????'
p271
I946
sS'previous'
p272
I3519
sS'hah'
p273
I3379
sS'had'
p274
I115
sS'easy'
p275
I677
sS'prison'
p276
I2525
sS'has'
p277
I82
sS'hat'
p278
I1520
sS'possible'
p279
I803
sS'possibly'
p280
I1729
sS'birth'
p281
I1868
sS'shadow'
p282
I5471
sS'unique'
p283
I5004
sS'desire'
p284
I5884
sS'bobby'
p285
I3335
sS'steph'
p286
I4764
sS'remind'
p287
I2416
sS'steps'
p288
I2860
sS'attorney'
p289
I5401
sS'right'
p290
I87
sS'old'
p291
I303
sS'ole'
p292
I5250
sS'crowd'
p293
I1773
sS'people'
p294
I86
sS'crown'
p295
I5435
sS'harassment'
p296
I4064
sS'creep'
p297
I5798
sS'enemies'
p298
I4317
sS'\xf0\x9f\xa4\x94\xf0\x9f\xa4\x94\xf0\x9f\xa4\x94'
p299
I4126
sS'for'
p300
I15
sS'bottom'
p301
I1785
sS'fox'
p302
I1114
sS'creative'
p303
I2408
sS'\xf0\x9f\x98\xad\xf0\x9f\x98\xad\xf0\x9f\x98\xad\xf0\x9f\x98\xad'
p304
I3897
sS'individuals'
p305
I5188
sS'umm'
p306
I3898
sS'foh'
p307
I4202
sS'defensive'
p308
I3444
sS'losing'
p309
I1208
sS'dollars'
p310
I2009
sS'citizens'
p311
I2249
sS'o'
p312
I1312
sS'stoked'
p313
I4439
sS'palestinians'
p314
I5738
sS'slightly'
p315
I2883
sS'raised'
p316
I2736
sS'statements'
p317
I3260
sS'soo'
p318
I3918
sS'son'
p319
I807
sS'thankful'
p320
I3901
sS'sos'
p321
I4924
sS'wrap'
p322
I4127
sS'sox'
p323
I3477
sS'support'
p324
I338
sS'constantly'
p325
I2734
sS'raped'
p326
I3782
sS'wordpress'
p327
I3476
sS'spring'
p328
I3178
sS'jane'
p329
I4586
sS'here\xe2\x80\x99s'
p330
I4210
sS'happy'
p331
I130
sS'offer'
p332
I2034
sS'notifications'
p333
I2775
sS'melania'
p334
I4538
sS'congratulations'
p335
I1069
sS"else's"
p336
I5363
sS'inside'
p337
I967
sS'devices'
p338
I3689
sS'shooter'
p339
I4222
sS'disgrace'
p340
I2653
sS'tournament'
p341
I4014
sS'proven'
p342
I2698
sS'proves'
p343
I3609
sS'exist'
p344
I1694
sS'supporters'
p345
I885
sS'floor'
p346
I1708
sS'actor'
p347
I2930
sS'role'
p348
I1799
sS'developers'
p349
I3496
sS'smell'
p350
I2187
sS'roll'
p351
I1326
sS'models'
p352
I3488
sS'muslims'
p353
I1181
sS'intent'
p354
I5472
sS'rolling'
p355
I2994
sS'time'
p356
I77
sS'push'
p357
I1783
sS':/'
p358
I968
sS':('
p359
I469
sS':)'
p360
I166
sS'chain'
p361
I3943
sS'whoever'
p362
I2275
sS'::'
p363
I3998
sS'chair'
p364
I2654
sS':3'
p365
I4156
sS'vet'
p366
I5719
sS"when's"
p367
I4883
sS'veterans'
p368
I3912
sS':o'
p369
I4372
sS'jerk'
p370
I4043
sS':d'
p371
I1057
sS'recipe'
p372
I3697
sS'choice'
p373
I895
sS'stays'
p374
I4090
sS':p'
p375
I1242
sS'minute'
p376
I1232
sS':s'
p377
I5388
sS'tear'
p378
I3666
sS'leave'
p379
I511
sS'solved'
p380
I5236
sS'settle'
p381
I3466
sS'subway'
p382
I2541
sS'team'
p383
I273
sS'prevent'
p384
I4341
sS'sigh'
p385
I3309
sS'prediction'
p386
I5215
sS'sign'
p387
I797
sS'shirts'
p388
I2682
sS'\xf0\x9f\x94\xa5\xf0\x9f\x94\xa5'
p389
I5148
sS'educate'
p390
I5551
sS'realizing'
p391
I4851
sS'current'
p392
I1367
sS'300'
p393
I5289
sS'falling'
p394
I2624
sS'boost'
p395
I5129
sS'jury'
p396
I5885
sS'funeral'
p397
I5608
sS'understanding'
p398
I2939
sS'snack'
p399
I5261
sS'yards'
p400
I3405
sS'address'
p401
I1606
sS'alone'
p402
I857
sS'along'
p403
I978
sS'brilliant'
p404
I1577
sS'knicks'
p405
I4027
sS'funded'
p406
I5603
sS'accomplished'
p407
I4849
sS'studies'
p408
I4793
sS'love'
p409
I64
sS'prefer'
p410
I1588
sS'logical'
p411
I5309
sS'bloody'
p412
I5005
sS'fake'
p413
I830
sS'working'
p414
I402
sS'positive'
p415
I1476
sS'angry'
p416
I1617
sS'!!!!!!'
p417
I1825
sS'opposed'
p418
I3622
sS'wondering'
p419
I1408
sS'films'
p420
I4058
sS'loving'
p421
I1257
sS'introducing'
p422
I4445
sS'afford'
p423
I2159
sS'apparent'
p424
I5591
sS'oregon'
p425
I5950
sS'visual'
p426
I5787
sS'everywhere'
p427
I1444
sS'behalf'
p428
I5671
sS'anything'
p429
I289
sS'pretend'
p430
I3258
sS'abortion'
p431
I5861
sS'believes'
p432
I3012
sS'values'
p433
I3721
sS'following'
p434
I966
sS'awesome'
p435
I284
sS'allowed'
p436
I1255
sS'offense'
p437
I1965
sS'stole'
p438
I2567
sS'winter'
p439
I2022
sS'divided'
p440
I5354
sS'snaps'
p441
I3280
sS'laundry'
p442
I4873
sS'spot'
p443
I1023
sS'applications'
p444
I5788
sS'date'
p445
I876
sS'such'
p446
I314
sS'suck'
p447
I963
sS'revealed'
p448
I3994
sS'stress'
p449
I3058
sS'natural'
p450
I2720
sS'ss'
p451
I4693
sS'st'
p452
I2062
sS'si'
p453
I5837
sS'so'
p454
I24
sS'sm'
p455
I4122
sS'sc'
p456
I4441
sS'sa'
p457
I5838
sS'pulled'
p458
I2125
sS'sf'
p459
I816
sS'se'
p460
I5935
sS'unacceptable'
p461
I4742
sS'years'
p462
I235
sS'hiring'
p463
I4002
sS'kellyanne'
p464
I4129
sS'kanye'
p465
I3704
sS'djt'
p466
I4501
sS'jim'
p467
I2317
sS'stupidity'
p468
I3929
sS'faves'
p469
I4377
sS'decades'
p470
I3596
sS'petition'
p471
I5638
sS'instantly'
p472
I5626
sS'matches'
p473
I4794
sS'smarter'
p474
I4139
sS"obama's"
p475
I1836
sS'records'
p476
I3176
sS'ketchup'
p477
I4954
sS'quarter'
p478
I3875
sS'square'
p479
I2004
sS'lowkey'
p480
I2368
sS'crushing'
p481
I5799
sS'sexually'
p482
I5951
sS'troll'
p483
I1633
sS'rioters'
p484
I5248
sS'jokes'
p485
I1918
sS'blm'
p486
I3482
sS'seriously'
p487
I508
sS'investigation'
p488
I2280
sS'internet'
p489
I915
sS'suggesting'
p490
I5374
sS'dodgers'
p491
I4100
sS'million'
p492
I832
sS'possibility'
p493
I4579
sS'quite'
p494
I900
sS'disrespect'
p495
I3311
sS'complicated'
p496
I4287
sS'besides'
p497
I2131
sS'grandma'
p498
I3276
sS'training'
p499
I1556
sS'dunno'
p500
I3023
sS'punk'
p501
I3534
sS'massive'
p502
I2332
sS'cos'
p503
I4569
sS'emotion'
p504
I5327
sS'henry'
p505
I4912
sS'saving'
p506
I2809
sS'spoken'
p507
I3731
sS'one'
p508
I50
sS'specifically'
p509
I3777
sS'spanish'
p510
I2765
sS'vote'
p511
I331
sS'open'
p512
I535
sS'city'
p513
I470
sS'bite'
p514
I3295
sS'whos'
p515
I5469
sS'fml'
p516
I5839
sS'2'
p517
I175
sS'draft'
p518
I2726
sS'typing'
p519
I5006
sS'williams'
p520
I3189
sS'shawn'
p521
I5775
sS'proving'
p522
I4504
sS'ridiculous'
p523
I1202
sS'boyfriend'
p524
I2118
sS'i\xe2\x80\x99ll'
p525
I2752
sS'actively'
p526
I5708
sS'damned'
p527
I5886
sS'addressing'
p528
I5867
sS'san'
p529
I764
sS'sam'
p530
I1920
sS'supremacist'
p531
I4236
sS'turned'
p532
I1054
sS'argument'
p533
I1542
sS'alley'
p534
I5490
sS'sad'
p535
I415
sS'woah'
p536
I2981
sS'tastes'
p537
I4539
sS'saw'
p538
I353
sS'sat'
p539
I2374
sS'warriors'
p540
I3891
sS'aside'
p541
I3235
sS'note'
p542
I1322
sS'omfg'
p543
I2271
sS'take'
p544
I156
sS'wanting'
p545
I2589
sS'opposite'
p546
I2354
sS'knew'
p547
I581
sS'knee'
p548
I3314
sS'pages'
p549
I3778
sS'lawn'
p550
I5936
sS'average'
p551
I2807
sS'phil'
p552
I3410
sS'drive'
p553
I914
sS'managing'
p554
I5138
sS'salt'
p555
I4059
sS'laws'
p556
I1929
sS'walking'
p557
I1302
sS'\xe2\x9c\xa8'
p558
I1666
sS'bright'
p559
I2959
sS'aggressive'
p560
I4288
sS'slow'
p561
I1548
sS'\xe2\x9c\x85'
p562
I4510
sS'fb'
p563
I1995
sS'tears'
p564
I1763
sS'going'
p565
I110
sS'hockey'
p566
I2339
sS'outrage'
p567
I4521
sS'carolina'
p568
I2211
sS'assistant'
p569
I4808
sS'prime'
p570
I2375
sS'settings'
p571
I4366
sS'ahmad'
p572
I3717
sS'worried'
p573
I1684
sS'roger'
p574
I5461
sS"could've"
p575
I2713
sS'bombs'
p576
I2643
sS'worries'
p577
I2721
sS'where'
p578
I138
sS'vision'
p579
I3687
sS'espn'
p580
I4639
sS'anyways'
p581
I2373
sS'surgery'
p582
I3463
sS'jumped'
p583
I4908
sS'sites'
p584
I3954
sS'scoring'
p585
I4731
sS'jobs'
p586
I1243
sS'screen'
p587
I1306
sS'awards'
p588
I3688
sS'jets'
p589
I1992
sS'mans'
p590
I3259
sS'many'
p591
I203
sS's'
p592
I328
sS'expression'
p593
I5592
sS"can't"
p594
I96
sS'twin'
p595
I3116
sS'anti'
p596
I2805
sS'comeback'
p597
I4034
sS'boat'
p598
I2756
sS'math'
p599
I2139
sS'caring'
p600
I4584
sS'stretch'
p601
I3629
sS'west'
p602
I1065
sS'vacation'
p603
I2448
sS'breath'
p604
I3177
sS'combined'
p605
I5375
sS'wants'
p606
I477
sS'lanes'
p607
I5569
sS'thousand'
p608
I4038
sS'photos'
p609
I1058
sS'hashtag'
p610
I1821
sS'former'
p611
I1345
sS'polls'
p612
I954
sS'policies'
p613
I2010
sS'newspaper'
p614
I4378
sS'situation'
p615
I1700
sS'ive'
p616
I1614
sS'engaged'
p617
I4755
sS'bros'
p618
I4862
sS'blah'
p619
I5845
sS'technology'
p620
I3009
sS'fame'
p621
I4874
sS'verified'
p622
I5820
sS'rooting'
p623
I4130
sS"trump's"
p624
I487
sS'putin'
p625
I1855
sS'cheers'
p626
I1651
sS'tracking'
p627
I4196
sS'nothin'
p628
I5130
sS'costs'
p629
I3135
sS'trains'
p630
I3878
sS'summer'
p631
I1095
sS'morons'
p632
I5301
sS'being'
p633
I169
sS'rest'
p634
I758
sS'weekly'
p635
I3749
sS'\xef\xb8\x8f\xef\xb8\x8f'
p636
I3428
sS'\xf0\x9f\x98\x82\xf0\x9f\x98\x82\xf0\x9f\x98\x82\xf0\x9f\x98\x82\xf0\x9f\x98\x82'
p637
I2974
sS'dicks'
p638
I5068
sS'around'
p639
I311
sS'sums'
p640
I5511
sS'pos'
p641
I4953
sS'dark'
p642
I1344
sS'(('
p643
I5451
sS'()'
p644
I2292
sS'traffic'
p645
I1533
sS'darn'
p646
I5480
sS'libs'
p647
I4968
sS'world'
p648
I294
sS'dare'
p649
I1933
sS'stranger'
p650
I2453
sS'millennials'
p651
I2548
sS'gimme'
p652
I4525
sS'clay'
p653
I5756
sS'learning'
p654
I1490
sS'racial'
p655
I2908
sS'thinks'
p656
I824
sS'yesss'
p657
I3299
sS'memories'
p658
I2679
sS'noon'
p659
I4124
sS'exit'
p660
I4698
sS'23rd'
p661
I4039
sS'refer'
p662
I5800
sS'biased'
p663
I2251
sS'scientific'
p664
I3854
sS'power'
p665
I696
sS'iconic'
p666
I4020
sS'leadership'
p667
I2395
sS'throwback'
p668
I3861
sS';)'
p669
I518
sS'stone'
p670
I3836
sS'package'
p671
I3234
sS'industry'
p672
I2120
sS'favorite'
p673
I349
sS'meal'
p674
I2950
sS'neighbor'
p675
I4299
sS'act'
p676
I918
sS'luck'
p677
I635
sS'burning'
p678
I3192
sS'image'
p679
I1487
sS'marlins'
p680
I5090
sS'homeless'
p681
I3139
sS'.........'
p682
I5279
sS'technically'
p683
I3212
sS'legacy'
p684
I2622
sS"how's"
p685
I1636
sS'her'
p686
I90
sS'hes'
p687
I1610
sS'philadelphia'
p688
I5652
sS'lmfaooo'
p689
I2516
sS"how'd"
p690
I3913
sS'bubble'
p691
I3907
sS'complete'
p692
I1413
sS'survived'
p693
I5742
sS'with'
p694
I29
sS'buying'
p695
I1409
sS'handsome'
p696
I2934
sS"they're"
p697
I277
sS'rush'
p698
I2714
sS'october'
p699
I924
sS'rage'
p700
I3770
sS'dawg'
p701
I3317
sS'dirty'
p702
I1949
sS'politically'
p703
I3413
sS'agree'
p704
I399
sS'gone'
p705
I685
sS'ac'
p706
I5302
sS'ab'
p707
I4507
sS'ohh'
p708
I4115
sS'ad'
p709
I1432
sS'ag'
p710
I5494
sS'af'
p711
I825
sS'ai'
p712
I4116
sS'certain'
p713
I1975
sS'stealing'
p714
I2862
sS'am'
p715
I144
sS'al'
p716
I1860
sS'watches'
p717
I4678
sS'an'
p718
I68
sS'ap'
p719
I2404
sS'as'
p720
I58
sS'at'
p721
I33
sS'aw'
p722
I1287
sS'walks'
p723
I4324
sS'ay'
p724
I4863
sS'watched'
p725
I713
sS'cream'
p726
I1280
sS'yoga'
p727
I3421
sS'graduate'
p728
I5497
sS'tight'
p729
I1886
sS'hofstra'
p730
I4780
sS'summit'
p731
I4268
sS'puppy'
p732
I2696
sS'disgraceful'
p733
I5653
sS'congress'
p734
I1956
sS'forgot'
p735
I684
sS'a1'
p736
I4226
sS'walker'
p737
I5930
sS'terry'
p738
I3247
sS'mask'
p739
I3627
sS'hello'
p740
I1044
sS'mass'
p741
I2171
sS'adam'
p742
I3668
sS'original'
p743
I1186
sS'9/11'
p744
I2206
sS'consider'
p745
I1436
sS'caused'
p746
I3029
sS'welfare'
p747
I5020
sS'reasoning'
p748
I5827
sS'causes'
p749
I4145
sS'hunting'
p750
I4928
sS'ty'
p751
I1402
sS'tv'
p752
I541
sS'champions'
p753
I5059
sS'tn'
p754
I5271
sS'to'
p755
I6003
sS'tl'
p756
I2035
sS'tm'
p757
I4512
sS'tf'
p758
I1388
sS'smile'
p759
I1381
sS'td'
p760
I3091
sS'paying'
p761
I1124
sS'appointment'
p762
I4746
sS'saved'
p763
I2140
sS'labor'
p764
I4041
sS'condition'
p765
I4342
sS'cable'
p766
I2887
sS'developing'
p767
I3757
sS'laying'
p768
I5121
sS'joined'
p769
I3580
sS'large'
p770
I1674
sS'sand'
p771
I4679
sS'sane'
p772
I5512
sS'harry'
p773
I2293
sS'small'
p774
I751
sS'past'
p775
I669
sS'pass'
p776
I922
sS'investment'
p777
I4289
sS'richard'
p778
I3710
sS'clock'
p779
I3577
sS'section'
p780
I2189
sS'fucks'
p781
I3435
sS'scientists'
p782
I4834
sS'full'
p783
I503
sS'hours'
p784
I536
sS'november'
p785
I1424
sS'legend'
p786
I2741
sS'brutal'
p787
I4174
sS'pics'
p788
I810
sS'prior'
p789
I4478
sS'cousins'
p790
I4097
sS'social'
p791
I835
sS'action'
p792
I1285
sS"would've"
p793
I1478
sS'vic'
p794
I5739
sS'via'
p795
I296
sS'followed'
p796
I1885
sS'vid'
p797
I3059
sS'.\xe2\x80\xa6'
p798
I1077
sS'vin'
p799
I5995
sS'vip'
p800
I4845
sS'gosh'
p801
I2956
sS'pitching'
p802
I4608
sS'6'
p803
I607
sS'more'
p804
I73
sS'teen'
p805
I4235
sS'door'
p806
I1555
sS'company'
p807
I1067
sS'corrected'
p808
I4781
sS'tested'
p809
I5707
sS'keeping'
p810
I1640
sS'science'
p811
I1611
sS'mall'
p812
I2401
sS'sent'
p813
I861
sS'learn'
p814
I757
sS'knocked'
p815
I4628
sS'male'
p816
I2012
sS'beautiful'
p817
I329
sS'scam'
p818
I4554
sS'stated'
p819
I4795
sS'suggestions'
p820
I2569
sS'accept'
p821
I2039
sS'states'
p822
I1215
sS'salty'
p823
I3289
sS'sense'
p824
I652
sS'dress'
p825
I1330
sS'information'
p826
I1741
sS'tulsa'
p827
I4203
sS'hugs'
p828
I2897
sS'browns'
p829
I2903
sS'plant'
p830
I4929
sS'plans'
p831
I1350
sS'soundtrack'
p832
I5498
sS'plane'
p833
I1881
sS'director'
p834
I2716
sS'refuse'
p835
I2587
sS'register'
p836
I3074
sS'mexican'
p837
I2739
sS'reminded'
p838
I3475
sS'installed'
p839
I5913
sS'attitude'
p840
I3069
sS'paper'
p841
I1419
sS'scott'
p842
I1731
sS'signs'
p843
I2907
sS'broadway'
p844
I3685
sS'smiling'
p845
I3632
sS'its'
p846
I186
sS'bummed'
p847
I5513
sS'ruining'
p848
I4588
sS'bummer'
p849
I4964
sS'sauce'
p850
I2333
sS'icymi'
p851
I4878
sS'sucked'
p852
I3600
sS'everytime'
p853
I4072
sS'always'
p854
I154
sS'found'
p855
I423
sS'shocking'
p856
I3536
sS'status'
p857
I2017
sS'england'
p858
I3940
sS'reduce'
p859
I5311
sS'eve'
p860
I4901
sS'operation'
p861
I5402
sS'murders'
p862
I5397
sS'really'
p863
I92
sS'try'
p864
I297
sS'lipstick'
p865
I5583
sS'blacks'
p866
I1560
sS'research'
p867
I1333
sS'misses'
p868
I5976
sS'darling'
p869
I5238
sS'salute'
p870
I4154
sS'belief'
p871
I5872
sS'imagine'
p872
I667
sS'driven'
p873
I5095
sS'owners'
p874
I3357
sS"woman's"
p875
I5767
sS'w'
p876
I403
sS'bernie'
p877
I1172
sS'major'
p878
I1028
sS'number'
p879
I717
sS'guess'
p880
I325
sS'heads'
p881
I2077
sS'jew'
p882
I3978
sS'jet'
p883
I3020
sS'threatening'
p884
I4658
sS'\xf0\x9f\x98\x9b'
p885
I2437
sS'\xf0\x9f\x98\x98'
p886
I782
sS'\xf0\x9f\x98\x9e'
p887
I2417
sS'relationship'
p888
I1759
sS'\xf0\x9f\x98\x9c'
p889
I1167
sS'\xf0\x9f\x98\x93'
p890
I4432
sS'\xf0\x9f\x98\x92'
p891
I1329
sS'\xf0\x9f\x98\x91'
p892
I2409
sS'\xf0\x9f\x98\x90'
p893
I2264
sS'interviewed'
p894
I5131
sS'\xf0\x9f\x98\x95'
p895
I1997
sS'\xf0\x9f\x98\x94'
p896
I1596
sS'\xf0\x9f\x98\x8b'
p897
I2877
sS'\xf0\x9f\x98\x8a'
p898
I569
sS'\xf0\x9f\x98\x89'
p899
I658
sS'\xf0\x9f\x98\x88'
p900
I2353
sS'\xf0\x9f\x98\x8f'
p901
I1538
sS'\xf0\x9f\x98\x8e'
p902
I1026
sS'\xf0\x9f\x98\x8d'
p903
I676
sS'\xf0\x9f\x98\x8c'
p904
I2510
sS'\xf0\x9f\x98\x83'
p905
I2964
sS'theater'
p906
I3564
sS'\xf0\x9f\x98\x81'
p907
I1226
sS'\xf0\x9f\x98\x80'
p908
I1592
sS'\xf0\x9f\x98\x87'
p909
I2845
sS'\xf0\x9f\x98\x86'
p910
I2557
sS'\xf0\x9f\x98\x85'
p911
I1353
sS'\xf0\x9f\x98\x84'
p912
I2013
sS'\xf0\x9f\x98\xbb'
p913
I4374
sS'\xf0\x9f\x98\xb9'
p914
I5902
sS'\xf0\x9f\x98\xb3'
p915
I1374
sS'\xf0\x9f\x98\xb1'
p916
I2727
sS'\xf0\x9f\x98\xb0'
p917
I5499
sS'\xf0\x9f\x98\xb7'
p918
I5216
sS'\xf0\x9f\x98\xb4'
p919
I3219
sS'\xf0\x9f\x98\xab'
p920
I3004
sS'\xf0\x9f\x98\xaa'
p921
I2784
sS'\xf0\x9f\x98\xa9'
p922
I729
sS'marriage'
p923
I3071
sS'\xf0\x9f\x98\xad'
p924
I409
sS'\xf0\x9f\x98\xac'
p925
I1738
sS'\xf0\x9f\x98\xa3'
p926
I5809
sS'\xf0\x9f\x98\xa2'
p927
I1532
sS'\xf0\x9f\x98\xa1'
p928
I2631
sS'\xf0\x9f\x98\xa5'
p929
I5149
sS'\xf0\x9f\x98\xa4'
p930
I3620
sS'fights'
p931
I4244
sS'sell'
p932
I1159
sS'self'
p933
I1047
sS'also'
p934
I146
sS'analogy'
p935
I4309
sS'play'
p936
I251
sS'brooklyn'
p937
I1276
sS'plan'
p938
I671
sS'accepting'
p939
I5083
sS'understands'
p940
I4965
sS'sometimes'
p941
I701
sS'cover'
p942
I842
sS'tpp'
p943
I5757
sS'attacking'
p944
I3939
sS'ugh'
p945
I670
sS'golf'
p946
I3215
sS'gold'
p947
I1385
sS'session'
p948
I1943
sS'impact'
p949
I2488
sS'sayin'
p950
I3871
sS'writes'
p951
I4467
sS'writer'
p952
I3197
sS'failed'
p953
I1626
sS'wayne'
p954
I5060
sS'factor'
p955
I3851
sS'giants'
p956
I965
sS'banned'
p957
I3102
sS'sunny'
p958
I4597
sS"they'd"
p959
I3099
sS'preparing'
p960
I4483
sS'reporters'
p961
I2960
sS'distraction'
p962
I5290
sS'enemy'
p963
I3652
sS'progressive'
p964
I3860
sS'cry'
p965
I925
sS'ivanka'
p966
I4933
sS'river'
p967
I3765
sS'insane'
p968
I1357
sS'set'
p969
I594
sS'creator'
p970
I5612
sS'startup'
p971
I3850
sS'sex'
p972
I980
sS'see'
p973
I81
sS'sec'
p974
I3064
sS'sea'
p975
I2690
sS'shower'
p976
I2605
sS'#'
p977
I2020
sS'don\xe2\x80\x99t'
p978
I984
sS'movie'
p979
I522
sS'currently'
p980
I955
sS',\xe2\x80\xa6'
p981
I4879
sS'nope'
p982
I736
sS'monsters'
p983
I5887
sS'compliment'
p984
I3552
sS'knowing'
p985
I1931
sS'incident'
p986
I4449
sS'last'
p987
I158
sS'thot'
p988
I5888
sS'hint'
p989
I4376
sS'connection'
p990
I2506
sS'rose'
p991
I2290
sS'let'
p992
I224
sS'whole'
p993
I385
sS'\xe2\x98\xb9'
p994
I1748
sS'\xe2\x98\xba'
p995
I799
sS'drunk'
p996
I950
sS'loan'
p997
I5280
sS'community'
p998
I991
sS'coincidence'
p999
I4454
sS'))'
p1000
I4482
sS'agents'
p1001
I4973
sS'church'
p1002
I2248
sS'belt'
p1003
I4178
sS'devil'
p1004
I3199
sS'filth'
p1005
I4940
sS'\xe2\x98\x9e'
p1006
I2226
sS'hitting'
p1007
I2056
sS'firm'
p1008
I5195
sS'sweetheart'
p1009
I5463
sS'champion'
p1010
I3653
sS'fire'
p1011
I590
sS"what's"
p1012
I239
sS'fund'
p1013
I2790
sS'races'
p1014
I5688
sS'awake'
p1015
I3112
sS'receive'
p1016
I3373
sS"what'd"
p1017
I5267
sS'mlb'
p1018
I5387
sS'reliable'
p1019
I5732
sS'tip'
p1020
I2300
sS'budget'
p1021
I3461
sS'admire'
p1022
I5621
sS'forgetting'
p1023
I4957
sS'pressed'
p1024
I5914
sS'error'
p1025
I2873
sS'kissing'
p1026
I5395
sS'pound'
p1027
I5178
sS'hoping'
p1028
I1015
sS'backing'
p1029
I4321
sS'triple'
p1030
I5613
sS'chase'
p1031
I3372
sS'funny'
p1032
I397
sS'raiders'
p1033
I2767
sS'rules'
p1034
I1558
sS'alert'
p1035
I2267
sS'viewing'
p1036
I4523
sS'walmart'
p1037
I4906
sS'recent'
p1038
I1814
sS'kno'
p1039
I4044
sS'surrogate'
p1040
I4522
sS'\xf0\x9f\xa4\x94\xf0\x9f\xa4\x94'
p1041
I3315
sS'picks'
p1042
I2617
sS'person'
p1043
I350
sS'kelly'
p1044
I2254
sS'tim'
p1045
I1715
sS'lester'
p1046
I1180
sS'stunt'
p1047
I5864
sS'readers'
p1048
I5785
sS'rangers'
p1049
I4992
sS'parents'
p1050
I1206
sS'location'
p1051
I1663
sS'homeland'
p1052
I5413
sS'surprised'
p1053
I873
sS'australia'
p1054
I4098
sS'victims'
p1055
I2090
sS'emergency'
p1056
I2976
sS'demands'
p1057
I5553
sS'couple'
p1058
I796
sS'wives'
p1059
I5328
sS'shitty'
p1060
I1979
sS'suffering'
p1061
I4426
sS'projects'
p1062
I3657
sS'd'
p1063
I1037
sS'continue'
p1064
I1271
sS'senate'
p1065
I3403
sS'goddamn'
p1066
I4440
sS'b4'
p1067
I3527
sS'mighty'
p1068
I5137
sS'sight'
p1069
I3914
sS'curious'
p1070
I1434
sS'sheesh'
p1071
I5554
sS'and/or'
p1072
I4257
sS'religion'
p1073
I2029
sS'dating'
p1074
I2763
sS'be'
p1075
I22
sS'bf'
p1076
I3899
sS'bb'
p1077
I2554
sS'bc'
p1078
I504
sS'agreement'
p1079
I5079
sS'bk'
p1080
I4716
sS'nowhere'
p1081
I2864
sS'santa'
p1082
I2656
sS'bs'
p1083
I1660
sS'by'
p1084
I71
sS'deserved'
p1085
I2152
sS'netflix'
p1086
I1412
sS'deserves'
p1087
I2153
sS'clinton'
p1088
I202
sS'colorado'
p1089
I4694
sS'garbage'
p1090
I1410
sS'terrorists'
p1091
I1998
sS'into'
p1092
I191
sS'appropriate'
p1093
I3024
sS'lebron'
p1094
I5604
sS'spam'
p1095
I4705
sS'spending'
p1096
I2266
sS'submit'
p1097
I2918
sS'custom'
p1098
I3711
sS'surrogates'
p1099
I5154
sS'suit'
p1100
I2074
sS':'
p1101
I37
sS'opens'
p1102
I3662
sS'elsewhere'
p1103
I5605
sS'jewish'
p1104
I1760
sS'poster'
p1105
I3669
sS'pastor'
p1106
I5239
sS't-shirt'
p1107
I4809
sS'link'
p1108
I656
sS'line'
p1109
I547
sS'posted'
p1110
I1123
sS'up'
p1111
I47
sS'us'
p1112
I117
sS'ur'
p1113
I307
sS'um'
p1114
I1448
sS'slander'
p1115
I4434
sS'un'
p1116
I2052
sS'uh'
p1117
I1570
sS'uk'
p1118
I2232
sS'medical'
p1119
I2331
sS'yelled'
p1120
I5552
sS'chad'
p1121
I4091
sS'likewise'
p1122
I4958
sS'cowboys'
p1123
I4473
sS'influence'
p1124
I3238
sS'starbucks'
p1125
I2921
sS'chat'
p1126
I1237
sS'thugs'
p1127
I4871
sS'codes'
p1128
I4796
sS'points'
p1129
I874
sS'actors'
p1130
I4620
sS'robots'
p1131
I5977
sS'sides'
p1132
I2830
sS'ago'
p1133
I432
sS'lane'
p1134
I3207
sS'land'
p1135
I1647
sS'texted'
p1136
I4322
sS'age'
p1137
I1184
sS'walked'
p1138
I2345
sS'hella'
p1139
I956
sS'oracle'
p1140
I4323
sS'fresh'
p1141
I1704
sS'having'
p1142
I352
sS'essay'
p1143
I3281
sS'code'
p1144
I1203
sS'scratch'
p1145
I4617
sS'results'
p1146
I2023
sS'existing'
p1147
I4670
sS'legal'
p1148
I1573
sS'freakin'
p1149
I4213
sS'chillin'
p1150
I5853
sS'seemed'
p1151
I2521
sS'concerned'
p1152
I2068
sS'young'
p1153
I674
sS'send'
p1154
I380
sS'dislike'
p1155
I4515
sS'tequila'
p1156
I5755
sS'resources'
p1157
I4092
sS'garden'
p1158
I3422
sS'torture'
p1159
I5771
sS'continues'
p1160
I2349
sS'nominated'
p1161
I5549
sS'practicing'
p1162
I5889
sS'continued'
p1163
I4880
sS'wipe'
p1164
I5689
sS'magic'
p1165
I1661
sS'experiencing'
p1166
I3075
sS'marry'
p1167
I4023
sS'gettin'
p1168
I4729
sS"they've"
p1169
I2043
sS'fewer'
p1170
I5329
sS'anxious'
p1171
I5975
sS'race'
p1172
I766
sS'tru'
p1173
I5016
sS'pledge'
p1174
I5563
sS'sexism'
p1175
I5568
sS'video'
p1176
I275
sS'odd'
p1177
I2857
sS'victor'
p1178
I2748
sS'sweaty'
p1179
I5584
sS'indian'
p1180
I2919
sS'twins'
p1181
I4392
sS'bird'
p1182
I2839
sS'led'
p1183
I3107
sS'lee'
p1184
I3582
sS'leg'
p1185
I2470
sS'alt-right'
p1186
I5291
sS'punch'
p1187
I2598
sS'leo'
p1188
I5639
sS'les'
p1189
I5978
sS'poverty'
p1190
I5084
sS'invented'
p1191
I3583
sS'great'
p1192
I95
sS'engage'
p1193
I5593
sS'technical'
p1194
I5052
sS'involved'
p1195
I1641
sS'survey'
p1196
I4379
sS'defeat'
p1197
I2996
sS'popcorn'
p1198
I4283
sS'opinion'
p1199
I964
sS'residents'
p1200
I5139
sS'makes'
p1201
I301
sS'weekends'
p1202
I4307
sS'thats'
p1203
I481
sS'siri'
p1204
I5303
sS'dumbest'
p1205
I4331
sS'tools'
p1206
I3643
sS'standing'
p1207
I1682
sS'confidence'
p1208
I3783
sS'certificate'
p1209
I4191
sS'illegal'
p1210
I1737
sS'theme'
p1211
I2021
sS'next'
p1212
I172
sS'doubt'
p1213
I1051
sS'rick'
p1214
I4162
sS'babe'
p1215
I1244
sS'carrying'
p1216
I4774
sS'baby'
p1217
I460
sS'charity'
p1218
I1955
sS'customer'
p1219
I2472
sS'balls'
p1220
I2015
sS'animals'
p1221
I2430
sS'this'
p1222
I18
sS'challenge'
p1223
I1791
sS'\xf0\x9f\x98\x8d\xf0\x9f\x98\x8d\xf0\x9f\x98\x8d'
p1224
I3120
sS'thin'
p1225
I4546
sS'process'
p1226
I1452
sS'lock'
p1227
I2769
sS'pieces'
p1228
I3132
sS'high'
p1229
I459
sS'slip'
p1230
I5937
sS'destroying'
p1231
I4140
sS'delay'
p1232
I3997
sS'animal'
p1233
I2596
sS'comedy'
p1234
I2364
sS'establishment'
p1235
I3587
sS'blocks'
p1236
I2987
sS'tied'
p1237
I3588
sS'pigs'
p1238
I5500
sS'fits'
p1239
I3304
sS'ties'
p1240
I4566
sS'realized'
p1241
I1589
sS'counter'
p1242
I4033
sS'robot'
p1243
I3035
sS'allow'
p1244
I1887
sS'classy'
p1245
I3455
sS'houston'
p1246
I3113
sS'producer'
p1247
I5538
sS'mute'
p1248
I4093
sS'move'
p1249
I552
sS'produced'
p1250
I4589
sS'warren'
p1251
I3370
sS'perfect'
p1252
I543
sS'degrees'
p1253
I2700
sS'2015'
p1254
I2577
sS'2014'
p1255
I2658
sS'2017'
p1256
I1665
sS'2016'
p1257
I665
sS'2011'
p1258
I4232
sS'2010'
p1259
I5720
sS'2013'
p1260
I3601
sS'2012'
p1261
I3286
sS'docs'
p1262
I4101
sS'bat'
p1263
I3747
sS'ship'
p1264
I1989
sS'snake'
p1265
I3030
sS'legendary'
p1266
I4502
sS'cage'
p1267
I4966
sS'realize'
p1268
I933
sS'presidential'
p1269
I714
sS'intelligent'
p1270
I3732
sS'sniffing'
p1271
I2874
sS'truth'
p1272
I644
sS'accounts'
p1273
I2324
sS'glasses'
p1274
I2197
sS'mets'
p1275
I1166
sS'doing'
p1276
I222
sS'society'
p1277
I2785
sS'books'
p1278
I1405
sS'witness'
p1279
I3590
sS"'"
p1280
I94
sS'hilarious'
p1281
I1204
sS'shut'
p1282
I787
sS'grilled'
p1283
I4926
sS'surely'
p1284
I3125
sS'collection'
p1285
I2145
sS'craving'
p1286
I3658
sS'scary'
p1287
I1017
sS'could'
p1288
I155
sS'david'
p1289
I1320
sS'davis'
p1290
I4131
sS'scare'
p1291
I4125
sS'blown'
p1292
I2909
sS'scene'
p1293
I1274
sS'owned'
p1294
I2746
sS'alleged'
p1295
I4657
sS'owner'
p1296
I3626
sS'blows'
p1297
I3722
sS'reference'
p1298
I1744
sS'start'
p1299
I309
sS'festival'
p1300
I2664
sS'system'
p1301
I869
sS'painful'
p1302
I3354
sS'interests'
p1303
I3646
sS'enforcement'
p1304
I2866
sS'stomach'
p1305
I3157
sS'stars'
p1306
I2350
sS'shorts'
p1307
I3341
sS'gotcha'
p1308
I3640
sS'depressing'
p1309
I3641
sS'elite'
p1310
I3133
sS'gotchu'
p1311
I5988
sS'steel'
p1312
I5529
sS'bother'
p1313
I2294
sS'gays'
p1314
I3733
sS'imho'
p1315
I5826
sS'false'
p1316
I1235
sS'partnership'
p1317
I5772
sS'spelled'
p1318
I4028
sS'tonight'
p1319
I197
sS'defending'
p1320
I3267
sS'clearly'
p1321
I837
sS'over-prepared'
p1322
I5338
sS'studying'
p1323
I3799
sS'babes'
p1324
I5206
sS'soap'
p1325
I5503
sS';-)'
p1326
I1830
sS'courtesy'
p1327
I4171
sS'device'
p1328
I2421
sS'segment'
p1329
I5017
sS'hypocrite'
p1330
I5989
sS'stronger'
p1331
I3416
sS'thanksgiving'
p1332
I4380
sS'face'
p1333
I408
sS"you'll"
p1334
I631
sS'painting'
p1335
I3884
sS'fact'
p1336
I464
sS'lmaoo'
p1337
I1529
sS'assholes'
p1338
I4141
sS'bring'
p1339
I471
sS'bikes'
p1340
I4941
sS'rough'
p1341
I2230
sS'decade'
p1342
I4446
sS'podcast'
p1343
I1438
sS'jay'
p1344
I2327
sS'should'
p1345
I103
sS'terminal'
p1346
I4290
sS'jam'
p1347
I3050
sS'tape'
p1348
I3114
sS'riding'
p1349
I3158
sS'hope'
p1350
I163
sS'meant'
p1351
I748
sS'insight'
p1352
I5030
sS'handle'
p1353
I1230
sS'sweetie'
p1354
I4516
sS'listened'
p1355
I2570
sS'means'
p1356
I528
sS'\xf0\x9f\x98\x82\xf0\x9f\x98\x82\xf0\x9f\x98\x82\xf0\x9f\x98\x82\xf0\x9f\x98\x82\xf0\x9f\x98\x82'
p1357
I5464
sS'familiar'
p1358
I2703
sS'\xf0\x9f\x94\xa5'
p1359
I1698
sS'lucky'
p1360
I942
sS'\xf0\x9f\x94\xb4'
p1361
I5282
sS'=)'
p1362
I5654
sS'smash'
p1363
I4835
sS'h'
p1364
I2161
sS'rapper'
p1365
I3606
sS'taxes'
p1366
I995
sS'reid'
p1367
I4891
sS'default'
p1368
I5625
sS'stuff'
p1369
I448
sS'!?!'
p1370
I5180
sS'ohio'
p1371
I1917
sS'guessing'
p1372
I2456
sS'btw'
p1373
I908
sS'frame'
p1374
I4073
sS'!!!!'
p1375
I360
sS'travis'
p1376
I4949
sS'packed'
p1377
I4318
sS'wire'
p1378
I5281
sS'destiny'
p1379
I4109
sS'insulting'
p1380
I3924
sS'nuclear'
p1381
I2803
sS'email'
p1382
I548
sS'keynote'
p1383
I5070
sS'lawsuit'
p1384
I4993
sS'staring'
p1385
I5292
sS'figured'
p1386
I1969
sS'invited'
p1387
I2379
sS'drug'
p1388
I2428
sS'rams'
p1389
I4725
sS'etc'
p1390
I1185
sS'figures'
p1391
I4408
sS'trumps'
p1392
I1909
sS'co'
p1393
I3136
sS'cc'
p1394
I916
sS'ca'
p1395
I2106
sS'cd'
p1396
I5828
sS'oakland'
p1397
I1802
sS'admin'
p1398
I5348
sS'apologize'
p1399
I2371
sS'drank'
p1400
I4699
sS'hottest'
p1401
I4269
sS'waste'
p1402
I1635
sS'hateful'
p1403
I4146
sS'atlanta'
p1404
I3563
sS'podcasts'
p1405
I5514
sS'hahaha'
p1406
I718
sS'rigged'
p1407
I2686
sS'va'
p1408
I4836
sS'site'
p1409
I1189
sS'vp'
p1410
I4029
sS'vr'
p1411
I4111
sS'vs'
p1412
I651
sS'tattoo'
p1413
I2309
sS'terrorist'
p1414
I1369
sS'matthew'
p1415
I5339
sS'digging'
p1416
I4326
sS'terrorism'
p1417
I1046
sS'phi'
p1418
I5640
sS'ball'
p1419
I960
sS'drink'
p1420
I750
sS'upon'
p1421
I2502
sS'dust'
p1422
I5196
sS'identity'
p1423
I4654
sS'off'
p1424
I150
sS'audio'
p1425
I2938
sS'drawing'
p1426
I3371
sS'newest'
p1427
I4629
sS'kiss'
p1428
I2388
sS'less'
p1429
I530
sS'moments'
p1430
I2231
sS'paul'
p1431
I1323
sS'web'
p1432
I1590
sS'generous'
p1433
I5829
sS'let\xe2\x80\x99s'
p1434
I4284
sS'transparent'
p1435
I5501
sS'arrest'
p1436
I3904
sS'wet'
p1437
I3663
sS'advanced'
p1438
I5221
sS'increased'
p1439
I5854
sS'government'
p1440
I1170
sS'checking'
p1441
I1705
sS'cruz'
p1442
I1403
sS'five'
p1443
I1364
sS'desk'
p1444
I3406
sS'nvm'
p1445
I2855
sS'password'
p1446
I4398
sS'fools'
p1447
I4350
sS'emma'
p1448
I5862
sS'bigotry'
p1449
I4356
sS'garage'
p1450
I5465
sS'become'
p1451
I840
sS'emmy'
p1452
I4332
sS'replacement'
p1453
I5486
sS'amendment'
p1454
I2668
sS'footage'
p1455
I2831
sS'choosing'
p1456
I5622
sS'ballot'
p1457
I3986
sS'literally'
p1458
I318
sS'avoid'
p1459
I2217
sS'does'
p1460
I161
sS'passion'
p1461
I3300
sS'blowing'
p1462
I3610
sS'schedule'
p1463
I1719
sS'pressure'
p1464
I2027
sS'stage'
p1465
I1187
sS'sister'
p1466
I1297
sS'lifestyle'
p1467
I5959
sS'puts'
p1468
I2583
sS'chrome'
p1469
I5168
sS'documentary'
p1470
I3892
sS'software'
p1471
I2420
sS'letters'
p1472
I4735
sS'pussy'
p1473
I1801
sS'commitment'
p1474
I5979
sS'crooked'
p1475
I2051
sS'hehe'
p1476
I2779
sS'housing'
p1477
I2032
sS'spots'
p1478
I4300
sS'stamina'
p1479
I3254
sS'bump'
p1480
I4076
sS'yrs'
p1481
I2163
sS'naturally'
p1482
I5721
sS'function'
p1483
I4150
sS'frisk'
p1484
I2846
sS'fasho'
p1485
I5758
sS'delivery'
p1486
I3512
sS'construction'
p1487
I3931
sS'count'
p1488
I1061
sS'places'
p1489
I1407
sS'official'
p1490
I1201
sS'smooth'
p1491
I3966
sS'excitement'
p1492
I5747
sS'convince'
p1493
I3529
sS'\xc2\xb0'
p1494
I5534
sS'problem'
p1495
I515
sS'irish'
p1496
I4123
sS'recognize'
p1497
I3147
sS'compared'
p1498
I2759
sS'deadly'
p1499
I5189
sS'lately'
p1500
I1915
sS'details'
p1501
I1178
sS'illusion'
p1502
I5473
sS'francisco'
p1503
I1433
sS'monday'
p1504
I836
sS'oppression'
p1505
I5444
sS'chance'
p1506
I627
sS'badass'
p1507
I4015
sS'dolphins'
p1508
I3448
sS'ghost'
p1509
I2305
sS'rule'
p1510
I1932
sS'lift'
p1511
I4861
sS'compete'
p1512
I5515
sS'defend'
p1513
I2588
sS'inning'
p1514
I4108
sS'saves'
p1515
I5181
sS'yikes'
p1516
I2636
sS'integrity'
p1517
I3841
sS'relationships'
p1518
I3740
sS'votes'
p1519
I1514
sS'voter'
p1520
I2591
sS'bike'
p1521
I2133
sS'voted'
p1522
I1843
sS'worth'
p1523
I605
sS"women's"
p1524
I3667
sS'tickets'
p1525
I769
sS"we'll"
p1526
I648
sS'upload'
p1527
I5672
sS'announced'
p1528
I2812
sS'phones'
p1529
I2297
sS'chef'
p1530
I4894
sS'7th'
p1531
I2634
sS'established'
p1532
I5673
sS'+'
p1533
I457
sS'above'
p1534
I1689
sS'suppose'
p1535
I2486
sS'officially'
p1536
I1758
sS'told'
p1537
I499
sS'protection'
p1538
I3607
sS'celebration'
p1539
I4182
sS'kudos'
p1540
I5320
sS'daughter'
p1541
I1543
sS'items'
p1542
I5085
sS'employees'
p1543
I3375
sS'itunes'
p1544
I1986
sS'smoke'
p1545
I1769
sS'stressed'
p1546
I5155
sS'aka'
p1547
I2085
sS'secure'
p1548
I5376
sS'highly'
p1549
I1871
sS'bro'
p1550
I268
sS'insta'
p1551
I4423
sS'thursday'
p1552
I1101
sS'total'
p1553
I1416
sS'brb'
p1554
I5224
sS'bra'
p1555
I4458
sS'sarah'
p1556
I3715
sS'plot'
p1557
I3307
sS'palestinian'
p1558
I4797
sS'sweater'
p1559
I3734
sS'indians'
p1560
I5578
sS"world's"
p1561
I3813
sS'insult'
p1562
I2649
sS'haha'
p1563
I276
sS'award'
p1564
I2261
sS'aware'
p1565
I2162
sS'blocking'
p1566
I3491
sS"must've"
p1567
I4902
sS'word'
p1568
I465
sS'wore'
p1569
I2485
sS'jess'
p1570
I4640
sS'work'
p1571
I152
sS'ik'
p1572
I4581
sS'theories'
p1573
I4362
sS'cuddle'
p1574
I4531
sS'tinder'
p1575
I3915
sS'era'
p1576
I2582
sS'transparency'
p1577
I5173
sS'india'
p1578
I2620
sS'recovery'
p1579
I4598
sS'provide'
p1580
I2414
sS'nuts'
p1581
I1874
sS'rookie'
p1582
I4013
sS'interview'
p1583
I893
sS'beach'
p1584
I1465
sS'pizza'
p1585
I1053
sS'bday'
p1586
I1220
sS'after'
p1587
I170
sS'lab'
p1588
I3728
sS'lay'
p1589
I3473
sS'law'
p1590
I687
sS'......'
p1591
I1311
sS'appreciate'
p1592
I668
sS'greek'
p1593
I5980
sS'green'
p1594
I1102
sS'fan'
p1595
I479
sS'order'
p1596
I784
sS'office'
p1597
I798
sS'consent'
p1598
I4659
sS'fab'
p1599
I4195
sS'japan'
p1600
I2774
sS'mayor'
p1601
I1882
sS'bombing'
p1602
I2242
sS'somewhere'
p1603
I1205
sS'kaepernick'
p1604
I2683
sS'christie'
p1605
I2092
sS'denver'
p1606
I4686
sS'production'
p1607
I2786
sS'belly'
p1608
I5457
sS'then'
p1609
I133
sS'them'
p1610
I98
sS'safe'
p1611
I589
sS'break'
p1612
I689
sS'band'
p1613
I1293
sS'roommate'
p1614
I3664
sS'shameful'
p1615
I4325
sS'they'
p1616
I43
sS'jesus'
p1617
I921
sS'bank'
p1618
I1865
sS'bread'
p1619
I2635
sS'whoop'
p1620
I5623
sS'l'
p1621
I1348
sS'rocks'
p1622
I3358
sS'reasonable'
p1623
I2318
sS'$50'
p1624
I5096
sS'feeds'
p1625
I4258
sS'carlos'
p1626
I5996
sS'crimes'
p1627
I2910
sS'hosted'
p1628
I5594
sS'!!!!!'
p1629
I800
sS'logo'
p1630
I3345
sS'network'
p1631
I1599
sS'cameras'
p1632
I4021
sS'hooked'
p1633
I5018
sS'daniel'
p1634
I4218
sS'medicine'
p1635
I4722
sS'veto'
p1636
I5453
sS'standard'
p1637
I2178
sS'admits'
p1638
I4647
sS'vets'
p1639
I4872
sS"people's"
p1640
I2184
sS'soundcloud'
p1641
I5585
sS'mvp'
p1642
I5081
sS'dammit'
p1643
I3578
sS'created'
p1644
I1511
sS'refugee'
p1645
I3229
sS'ordering'
p1646
I5674
sS'can\xe2\x80\x99t'
p1647
I1639
sS'bloomberg'
p1648
I5427
sS'champs'
p1649
I5960
sS'another'
p1650
I242
sS'comin'
p1651
I4875
sS'thick'
p1652
I3695
sS'rates'
p1653
I4373
sS'john'
p1654
I976
sS'dogs'
p1655
I1557
sS'cereal'
p1656
I5366
sS'wasted'
p1657
I3338
sS'toronto'
p1658
I4749
sS'mercy'
p1659
I4703
sS'target'
p1660
I2537
sS'scenes'
p1661
I3331
sS'ebay'
p1662
I5398
sS'merch'
p1663
I5703
sS'guilt'
p1664
I5293
sS'iron'
p1665
I3754
sS'hacking'
p1666
I5539
sS'powers'
p1667
I4671
sS'minus'
p1668
I4980
sS'youre'
p1669
I1755
sS'forced'
p1670
I2447
sS'strength'
p1671
I3497
sS'genuine'
p1672
I4750
sS'luxury'
p1673
I5207
sS'forces'
p1674
I3958
sS'bruce'
p1675
I2083
sS'what'
p1676
I34
sS'germany'
p1677
I3893
sS'phase'
p1678
I4931
sS'aunt'
p1679
I5916
sS'sun'
p1680
I1859
sS'voting'
p1681
I772
sS'responded'
p1682
I5491
sS'reserve'
p1683
I5157
sS'subtle'
p1684
I5722
sS'enjoyed'
p1685
I1339
sS'sharks'
p1686
I5700
sS'hrs'
p1687
I4172
sS'screening'
p1688
I5571
sS'hrc'
p1689
I849
sS'personality'
p1690
I3287
sS'do'
p1691
I45
sS'dm'
p1692
I827
sS'dj'
p1693
I2925
sS'de'
p1694
I2304
sS'dc'
p1695
I2148
sS'cardinals'
p1696
I4644
sS'da'
p1697
I1591
sS'nasty'
p1698
I2103
sS'dr'
p1699
I3294
sS'runs'
p1700
I2016
sS'covering'
p1701
I2629
sS'emo'
p1702
I5031
sS'w/o'
p1703
I3492
sS'steak'
p1704
I5065
sS'steal'
p1705
I2202
sS'secretary'
p1706
I2998
sS'w/'
p1707
I538
sS'depends'
p1708
I2075
sS'miserable'
p1709
I5272
sS'away'
p1710
I342
sS'gentleman'
p1711
I4183
sS'unable'
p1712
I5968
sS'props'
p1713
I3967
sS'we'
p1714
I38
sS'loose'
p1715
I3469
sS'terms'
p1716
I2992
sS'wh'
p1717
I5560
sS'wr'
p1718
I5434
sS'kitchen'
p1719
I2898
sS'cop'
p1720
I1382
sS'essentially'
p1721
I5436
sS'cow'
p1722
I4717
sS'ill'
p1723
I987
sS'brad'
p1724
I2484
sS'com'
p1725
I3933
sS'coo'
p1726
I5641
sS'con'
p1727
I2155
sS'tough'
p1728
I1021
sS'tons'
p1729
I3325
sS'tony'
p1730
I2787
sS'speak'
p1731
I848
sS'strong'
p1732
I883
sS'hashtags'
p1733
I5776
sS'families'
p1734
I2033
sS'innocent'
p1735
I2170
sS'relaxing'
p1736
I5187
sS'attacked'
p1737
I2612
sS'fest'
p1738
I3787
sS'east'
p1739
I1127
sS'publicly'
p1740
I4245
sS'air'
p1741
I947
sS'applies'
p1742
I5890
sS'aid'
p1743
I3445
sS'voice'
p1744
I1002
sS'launched'
p1745
I5938
sS'mistake'
p1746
I1673
sS'sticker'
p1747
I3729
sS'confirmed'
p1748
I2322
sS'perform'
p1749
I2841
sS'jerry'
p1750
I3723
sS'bunny'
p1751
I4837
sS'advertising'
p1752
I5438
sS'wheel'
p1753
I4270
sS'independent'
p1754
I4022
sS'raid'
p1755
I5113
sS'blames'
p1756
I4974
sS'hang'
p1757
I1019
sS'evil'
p1758
I1359
sS'hand'
p1759
I743
sS'blamed'
p1760
I5675
sS'kept'
p1761
I1627
sS'scenario'
p1762
I5790
sS'thx'
p1763
I1100
sS'tht'
p1764
I5066
sS'kyle'
p1765
I4151
sS'tho'
p1766
I230
sS'hispanic'
p1767
I3467
sS'client'
p1768
I4630
sS'the'
p1769
I6002
sS'musical'
p1770
I3308
sS"she'll"
p1771
I2728
sS'gods'
p1772
I3454
sS'quotes'
p1773
I3779
sS'thanks'
p1774
I83
sS'victim'
p1775
I1926
sS'jose'
p1776
I1960
sS'hills'
p1777
I5029
sS'photographer'
p1778
I4583
sS'josh'
p1779
I2356
sS'shout'
p1780
I1839
sS'belongs'
p1781
I4488
sS'board'
p1782
I1521
sS'gregg'
p1783
I5313
sS'rnc'
p1784
I5386
sS'boxes'
p1785
I5346
sS'designers'
p1786
I3784
sS'cooler'
p1787
I3894
sS'tebow'
p1788
I5356
sS'xbox'
p1789
I2503
sS'night'
p1790
I193
sS'security'
p1791
I1083
sS'honored'
p1792
I2252
sS'sends'
p1793
I4310
sS'born'
p1794
I1020
sS'confusing'
p1795
I3451
sS'humor'
p1796
I3621
sS'purple'
p1797
I3148
sS'phenomenal'
p1798
I5676
sS'/'
p1799
I879
sS'filming'
p1800
I4104
sS'asking'
p1801
I846
sS'?\xe2\x80\xa6'
p1802
I5197
sS'denied'
p1803
I5564
sS'beating'
p1804
I2497
sS'adorable'
p1805
I1788
sS'pls'
p1806
I852
sS'marketing'
p1807
I2426
sS'pose'
p1808
I5786
sS'plz'
p1809
I1739
sS'post'
p1810
I455
sS'months'
p1811
I724
sS'anime'
p1812
I3159
sS'wasting'
p1813
I4381
sS'pays'
p1814
I3968
sS'bound'
p1815
I4981
sS'fight'
p1816
I616
sS'way'
p1817
I132
sS'wat'
p1818
I4899
sS'was'
p1819
I26
sS'war'
p1820
I721
sS'becoming'
p1821
I2384
sS'true'
p1822
I263
sS'responding'
p1823
I3987
sS'isis'
p1824
I1043
sS'braves'
p1825
I5504
sS'crystal'
p1826
I5541
sS'emotional'
p1827
I2098
sS'promises'
p1828
I4450
sS'flat'
p1829
I3232
sS'evidence'
p1830
I1121
sS'promised'
p1831
I3725
sS'prayer'
p1832
I5962
sS'physical'
p1833
I2871
sS'dying'
p1834
I1228
sS'reality'
p1835
I1120
sS'interested'
p1836
I1111
sS'holding'
p1837
I1701
sS'test'
p1838
I1260
sS'scored'
p1839
I3589
sS'brothers'
p1840
I2802
sS'welcome'
p1841
I458
sS'update'
p1842
I639
sS"let's"
p1843
I324
sS'scores'
p1844
I5572
sS'cheated'
p1845
I3781
sS'together'
p1846
I435
sS'loyal'
p1847
I4427
sS'lineup'
p1848
I3065
sS'songs'
p1849
I1428
sS'concept'
p1850
I2465
sS'switched'
p1851
I4524
sS'dance'
p1852
I1277
sS'global'
p1853
I1594
sS'grateful'
p1854
I2842
sS'battle'
p1855
I2136
sS'certainly'
p1856
I1218
sS'zone'
p1857
I2457
sS'flash'
p1858
I3879
sS'terror'
p1859
I1877
sS"a's"
p1860
I5474
sS'brown'
p1861
I1420
sS'supported'
p1862
I3053
sS'\xe2\x9a\xbe\xef\xb8\x8f'
p1863
I3613
sS'vegan'
p1864
I3573
sS'vegas'
p1865
I2044
sS'trouble'
p1866
I1534
sS'blast'
p1867
I1780
sS'turns'
p1868
I1692
sS'gun'
p1869
I979
sS'p'
p1870
I1993
sS'soooo'
p1871
I2084
sS'guy'
p1872
I279
sS'upper'
p1873
I4347
sS'revolution'
p1874
I4393
sS'regret'
p1875
I2997
sS'bravo'
p1876
I4988
sS'discover'
p1877
I5150
sS'cost'
p1878
I1624
sS'rapist'
p1879
I3758
sS'curse'
p1880
I5454
sS'appear'
p1881
I3885
sS'assistance'
p1882
I5182
sS'shares'
p1883
I4110
sS'shared'
p1884
I2899
sS'appeal'
p1885
I4560
sS'supporting'
p1886
I1318
sS'explosion'
p1887
I1118
sS'muslim'
p1888
I1008
sS'downloaded'
p1889
I5903
sS'redskins'
p1890
I5830
sS"hadn't"
p1891
I3591
sS'appears'
p1892
I2603
sS'change'
p1893
I438
sS'sending'
p1894
I1429
sS'trial'
p1895
I3137
sS'usually'
p1896
I938
sS'pillow'
p1897
I5963
sS'homecoming'
p1898
I3545
sS'lmfaoooo'
p1899
I3155
sS'retired'
p1900
I5595
sS'extra'
p1901
I1070
sS'shaming'
p1902
I5891
sS'fbi'
p1903
I1372
sS'rarely'
p1904
I3703
sS'market'
p1905
I1354
sS'prove'
p1906
I1919
sS'retweeted'
p1907
I3535
sS'angela'
p1908
I4959
sS'live'
p1909
I212
sS'bombings'
p1910
I4421
sS'entrance'
p1911
I5981
sS'club'
p1912
I959
sS'clue'
p1913
I2729
sS'graphic'
p1914
I3450
sS'douche'
p1915
I4660
sS'niggas'
p1916
I923
sS'car'
p1917
I586
sS'cap'
p1918
I3332
sS'cat'
p1919
I872
sS'hardest'
p1920
I3971
sS'can'
p1921
I55
sS'cam'
p1922
I2814
sS'cal'
p1923
I3446
sS'cab'
p1924
I5053
sS'heart'
p1925
I580
sS'dedicated'
p1926
I4077
sS'december'
p1927
I3221
sS'chip'
p1928
I2818
sS"didn't"
p1929
I164
sS'supremacy'
p1930
I5677
sS'7pm'
p1931
I4609
sS'clothing'
p1932
I4982
sS'productive'
p1933
I4942
sS',,'
p1934
I5174
sS'write'
p1935
I864
sS'economy'
p1936
I2093
sS'??'
p1937
I234
sS'product'
p1938
I1716
sS'southern'
p1939
I4060
sS'disgusted'
p1940
I4757
sS'produce'
p1941
I4552
sS'heroes'
p1942
I3745
sS'?!'
p1943
I315
sS'remember'
p1944
I354
sS'whenever'
p1945
I1866
sS'typical'
p1946
I1863
sS'tagged'
p1947
I3815
sS'serving'
p1948
I4094
sS'indeed'
p1949
I1383
sS'haircut'
p1950
I4943
sS'brain'
p1951
I1130
sS'cold'
p1952
I912
sS'still'
p1953
I102
sS'birds'
p1954
I3840
sS'acknowledge'
p1955
I4661
sS'forms'
p1956
I5273
sS'window'
p1957
I2212
sS'non'
p1958
I2102
sS'introduce'
p1959
I4994
sS'half'
p1960
I606
sS'not'
p1961
I28
sS'nov'
p1962
I2715
sS'now'
p1963
I62
sS'hall'
p1964
I1952
sS'&gt;'
p1965
I364
sS'wont'
p1966
I2287
sS'james'
p1967
I1080
sS'drop'
p1968
I930
sS'entirely'
p1969
I2717
sS'trump\xe2\x80\x99s'
p1970
I2258
sS'em'
p1971
I801
sS'el'
p1972
I3948
sS'en'
p1973
I5679
sS'eh'
p1974
I1953
sS'challenged'
p1975
I5614
sS'ed'
p1976
I3251
sS'yeah'
p1977
I131
sS'replay'
p1978
I5308
sS'ex'
p1979
I2458
sS'year'
p1980
I200
sS'eu'
p1981
I4864
sS'et'
p1982
I2492
sS'happen'
p1983
I510
sS'calling'
p1984
I722
sS'ep'
p1985
I3100
sS'er'
p1986
I5377
sS'album'
p1987
I704
sS'shown'
p1988
I3597
sS'opened'
p1989
I2853
sS'space'
p1990
I926
sS'irony'
p1991
I3995
sS'increase'
p1992
I3261
sS'fargo'
p1993
I3326
sS'shows'
p1994
I615
sS'smfh'
p1995
I4691
sS'cars'
p1996
I1770
sS'\xf0\x9f\x92\xa9'
p1997
I5105
sS'lmk'
p1998
I3066
sS'rly'
p1999
I4475
sS'\xf0\x9f\x92\xaf'
p2000
I2006
sS'marine'
p2001
I5855
sS'card'
p2002
I951
sS'care'
p2003
I468
sS'\xf0\x9f\x92\x99'
p2004
I2731
sS'\xf0\x9f\x92\x98'
p2005
I3811
sS'\xf0\x9f\x92\x9b'
p2006
I3877
sS'\xf0\x9f\x92\x9a'
p2007
I4782
sS'\xf0\x9f\x92\x9c'
p2008
I2601
sS'\xf0\x9f\x92\x9e'
p2009
I3812
sS'\xf0\x9f\x92\x93'
p2010
I4219
sS'transition'
p2011
I5437
sS'\xf0\x9f\x92\x95'
p2012
I1126
sS'\xf0\x9f\x92\x94'
p2013
I4305
sS'\xf0\x9f\x92\x97'
p2014
I2944
sS'\xf0\x9f\x92\x96'
p2015
I2137
sS'\xf0\x9f\x92\x8b'
p2016
I3096
sS'\xf0\x9f\x92\x80'
p2017
I1941
sS'blind'
p2018
I2176
sS'initial'
p2019
I5228
sS'xo'
p2020
I3456
sS'xd'
p2021
I1720
sS'yourself'
p2022
I492
sS'xx'
p2023
I3214
sS'directly'
p2024
I2843
sS'impossible'
p2025
I2455
sS'message'
p2026
I1000
sS'drove'
p2027
I4428
sS'tomorrow'
p2028
I292
sS'size'
p2029
I1443
sS'checked'
p2030
I1861
sS'silent'
p2031
I3111
sS'caught'
p2032
I1035
sS'carson'
p2033
I4005
sS'tragic'
p2034
I3803
sS'friend'
p2035
I351
sS'mostly'
p2036
I1422
sS'that'
p2037
I17
sS'pittsburgh'
p2038
I5516
sS'brains'
p2039
I4737
sS'sniffles'
p2040
I5764
sS'flowers'
p2041
I1813
sS'appreciated'
p2042
I2214
sS'television'
p2043
I3489
sS'$10'
p2044
I4117
sS'edition'
p2045
I2549
sS'apples'
p2046
I4494
sS'investors'
p2047
I5892
sS'slay'
p2048
I5649
sS'correction'
p2049
I3949
sS'slap'
p2050
I3864
sS'anger'
p2051
I4610
sS'breakfast'
p2052
I1500
sS'offering'
p2053
I3767
sS'there\xe2\x80\x99s'
p2054
I3513
sS'terrific'
p2055
I4846
sS'mr.'
p2056
I1327
sS'online'
p2057
I738
sS'begin'
p2058
I2284
sS'price'
p2059
I1143
sS'america'
p2060
I365
sS']'
p2061
I1236
sS'michelle'
p2062
I2615
sS'forever'
p2063
I889
sS'egg'
p2064
I2895
sS'sunset'
p2065
I3845
sS'slaves'
p2066
I4752
sS'professional'
p2067
I2566
sS'german'
p2068
I4246
sS'discovered'
p2069
I3208
sS'fifth'
p2070
I5422
sS'ground'
p2071
I1676
sS'aint'
p2072
I1723
sS'upgrade'
p2073
I3216
sS'title'
p2074
I1580
sS'saints'
p2075
I4319
sS'only'
p2076
I105
sS'sierra'
p2077
I5123
sS'pumpkin'
p2078
I1967
sS'ffs'
p2079
I5974
sS'truly'
p2080
I927
sS'cannot'
p2081
I812
sS'celebrate'
p2082
I2086
sS'leather'
p2083
I5505
sS'bigly'
p2084
I5952
sS'losers'
p2085
I4399
sS'amanda'
p2086
I5939
sS'husband'
p2087
I1505
sS'concert'
p2088
I1488
sS'physically'
p2089
I4188
sS'ends'
p2090
I2018
sS'elected'
p2091
I1730
sS'unfit'
p2092
I4435
sS'asleep'
p2093
I2295
sS'hoes'
p2094
I3097
sS'sport'
p2095
I3700
sS'concern'
p2096
I2782
sS'israeli'
p2097
I4231
sS'?!?'
p2098
I1400
sS'3'
p2099
I232
sS'?!!'
p2100
I4349
sS'between'
p2101
I546
sS'developer'
p2102
I3217
sS'notice'
p2103
I1394
sS'blame'
p2104
I1016
sS'hurts'
p2105
I1693
sS'article'
p2106
I673
sS'talented'
p2107
I2360
sS'comey'
p2108
I3432
sS'wheels'
p2109
I5655
sS'delete'
p2110
I1440
sS'comes'
p2111
I618
sS'nearby'
p2112
I5740
sS'madness'
p2113
I4533
sS'jeans'
p2114
I3524
sS"couldn't"
p2115
I566
sS'liberal'
p2116
I1305
sS'cares'
p2117
I1144
sS'informed'
p2118
I4723
sS'african-american'
p2119
I5032
sS'these'
p2120
I140
sS'trick'
p2121
I2929
sS'editorial'
p2122
I4517
sS'scum'
p2123
I4024
sS'coolest'
p2124
I5321
sS'bias'
p2125
I2160
sS'embrace'
p2126
I4357
sS'heels'
p2127
I5831
sS'return'
p2128
I1540
sS'stickers'
p2129
I4084
sS'awhile'
p2130
I3419
sS'worry'
p2131
I985
sS'develop'
p2132
I5748
sS'media'
p2133
I395
sS'ya'
p2134
I336
sS'followers'
p2135
I1248
sS'\xf0\x9f\x99\x8f\xf0\x9f\x8f\xbb'
p2136
I4479
sS'document'
p2137
I5789
sS'\xf0\x9f\x99\x8f\xf0\x9f\x8f\xbd'
p2138
I4333
sS'\xf0\x9f\x99\x8f\xf0\x9f\x8f\xbc'
p2139
I3795
sS'\xf0\x9f\x99\x8f\xf0\x9f\x8f\xbe'
p2140
I4599
sS'finish'
p2141
I1270
sS'closest'
p2142
I4724
sS'fruit'
p2143
I4243
sS'favorites'
p2144
I3169
sS'mentally'
p2145
I3452
sS'burrito'
p2146
I4662
sS'charges'
p2147
I2966
sS'constitutional'
p2148
I4363
sS'gain'
p2149
I3222
sS'charged'
p2150
I2376
sS'noah'
p2151
I5562
sS'valuable'
p2152
I5691
sS'touch'
p2153
I1258
sS'speed'
p2154
I2352
sS'ps4'
p2155
I2737
sS'death'
p2156
I865
sS'thinking'
p2157
I392
sS'desktop'
p2158
I5982
sS'verse'
p2159
I4885
sS'treatment'
p2160
I3537
sS'republic'
p2161
I5235
sS'struck'
p2162
I5983
sS'real'
p2163
I199
sS'read'
p2164
I249
sS'psa'
p2165
I5312
sS'gonna'
p2166
I190
sS'early'
p2167
I549
sS'listening'
p2168
I804
sS'using'
p2169
I500
sS'lady'
p2170
I1052
sS'ruled'
p2171
I5252
sS'fortune'
p2172
I5815
sS'pounds'
p2173
I3453
sS'collective'
p2174
I4838
sS'endorses'
p2175
I3822
sS'benefit'
p2176
I3228
sS'maker'
p2177
I4680
sS't'
p2178
I1078
sS'endorsed'
p2179
I2884
sS'exposed'
p2180
I2545
sS'eddie'
p2181
I4830
sS'viral'
p2182
I5607
sS'recorded'
p2183
I4184
sS'conservative'
p2184
I2443
sS'dies'
p2185
I3355
sS'arabia'
p2186
I4103
sS'business'
p2187
I626
sS'asap'
p2188
I1922
sS'equivalent'
p2189
I5492
sS'^_^'
p2190
I5403
sS'exciting'
p2191
I1826
sS'throw'
p2192
I884
sS'comparison'
p2193
I3347
sS'central'
p2194
I2121
sS'chop'
p2195
I5746
sS'journey'
p2196
I1827
sS'wolf'
p2197
I3862
sS"isn't"
p2198
I267
sS'backup'
p2199
I3908
sS'protests'
p2200
I2799
sS'snapchat'
p2201
I1113
sS'heated'
p2202
I5915
sS'elementary'
p2203
I5741
sS'your'
p2204
I32
sS'log'
p2205
I4618
sS'prepare'
p2206
I3680
sS'area'
p2207
I868
sS'assumed'
p2208
I4823
sS'lol'
p2209
I51
sS'los'
p2210
I4451
sS'cats'
p2211
I2002
sS'low'
p2212
I788
sS'lot'
p2213
I300
sS'allergic'
p2214
I5964
sS'jones'
p2215
I2517
sS'pitcher'
p2216
I5294
sS'delayed'
p2217
I4706
sS'trying'
p2218
I291
sS'hire'
p2219
I2507
sS'fraud'
p2220
I1736
sS'stanford'
p2221
I3433
sS'comics'
p2222
I4311
sS'bucket'
p2223
I4557
sS'describe'
p2224
I2449
sS'moved'
p2225
I1526
sS'sales'
p2226
I2750
sS'moves'
p2227
I2810
sS'nerd'
p2228
I4681
sS'credibility'
p2229
I5680
sS'valid'
p2230
I3359
sS'you'
p2231
I8
sS'poor'
p2232
I792
sS'poop'
p2233
I5033
sS'podium'
p2234
I5345
sS'peak'
p2235
I3773
sS'coverage'
p2236
I1751
sS'pool'
p2237
I2828
sS'building'
p2238
I957
sS'controlled'
p2239
I4850
sS'3-1'
p2240
I5801
sS'3-0'
p2241
I4590
sS'corey'
p2242
I2882
sS'pointing'
p2243
I3916
sS'metaphor'
p2244
I4961
sS'month'
p2245
I678
sS'messy'
p2246
I5810
sS'religious'
p2247
I3418
sS'carpet'
p2248
I3837
sS'referring'
p2249
I2057
sS'very'
p2250
I159
sS'horror'
p2251
I2094
sS'selfies'
p2252
I3348
sS'decide'
p2253
I2088
sS'heaven'
p2254
I2826
sS'--'
p2255
I486
sS'louis'
p2256
I5314
sS'smith'
p2257
I2400
sS"i'll"
p2258
I157
sS'cookies'
p2259
I2742
sS'instagram'
p2260
I1528
sS'streets'
p2261
I2169
sS'milo'
p2262
I5905
sS'\xf0\x9f\x91\x8d\xf0\x9f\x8f\xbc'
p2263
I3996
sS'\xf0\x9f\x91\x8d\xf0\x9f\x8f\xbb'
p2264
I4320
sS'casual'
p2265
I5615
sS'emotions'
p2266
I3712
sS'learned'
p2267
I1442
sS'iran'
p2268
I3774
sS'\xf0\x9f\xa4\x97'
p2269
I1724
sS'\xf0\x9f\xa4\x94'
p2270
I445
sS'\xf0\x9f\xa4\x93'
p2271
I3560
sS'answers'
p2272
I2259
sS'tracks'
p2273
I3364
sS'iraq'
p2274
I2191
sS'arena'
p2275
I5778
sS'ahead'
p2276
I1116
sS'inspired'
p2277
I2262
sS'creepy'
p2278
I1946
sS'fired'
p2279
I2096
sS'amount'
p2280
I1807
sS'arent'
p2281
I4695
sS'family'
p2282
I476
sS'ask'
p2283
I398
sS'trained'
p2284
I4960
sS'actress'
p2285
I5392
sS'khan'
p2286
I3553
sS'takes'
p2287
I805
sS'answered'
p2288
I3382
sS'pup'
p2289
I5158
sS'\xf0\x9f\x91\x8c\xf0\x9f\x8f\xbc'
p2290
I5322
sS'\xf0\x9f\x91\x8c\xf0\x9f\x8f\xbd'
p2291
I4775
sS'\xf0\x9f\x91\x8c\xf0\x9f\x8f\xbb'
p2292
I4672
sS'taken'
p2293
I1160
sS'injury'
p2294
I2514
sS'\xf0\x9f\x99\x8c\xf0\x9f\x8f\xbe'
p2295
I5159
sS'\xf0\x9f\x99\x8c\xf0\x9f\x8f\xbc'
p2296
I3785
sS'\xf0\x9f\x99\x8c\xf0\x9f\x8f\xbd'
p2297
I4574
sS'\xf0\x9f\x99\x8c\xf0\x9f\x8f\xbb'
p2298
I5439
sS'jr.'
p2299
I2707
sS'surprisingly'
p2300
I5414
sS'excuse'
p2301
I1396
sS'broke'
p2302
I1150
sS'hurry'
p2303
I3810
sS'hardware'
p2304
I5344
sS'offended'
p2305
I3140
sS'nine'
p2306
I5080
sS'history'
p2307
I650
sS'boycott'
p2308
I4603
sS'pushed'
p2309
I3771
sS'phrase'
p2310
I3633
sS'species'
p2311
I5019
sS'stayed'
p2312
I3200
sS'fr'
p2313
I2313
sS'ft'
p2314
I1962
sS'tried'
p2315
I638
sS'rude'
p2316
I2343
sS'sneak'
p2317
I3739
sS'breitbart'
p2318
I5445
sS'denial'
p2319
I5071
sS'rudy'
p2320
I4567
sS'fl'
p2321
I4132
sS'a'
p2322
I6
sS'anytime'
p2323
I2097
sS'ego'
p2324
I5283
sS'banks'
p2325
I2892
sS'dream'
p2326
I939
sS'photoshop'
p2327
I5476
sS'help'
p2328
I254
sS'sooo'
p2329
I2296
sS'soon'
p2330
I323
sS'held'
p2331
I2245
sS'bullpen'
p2332
I4382
sS'committee'
p2333
I4884
sS'committed'
p2334
I3121
sS'hell'
p2335
I375
sS'exact'
p2336
I1753
sS'actually'
p2337
I188
sS'systems'
p2338
I4886
sS'relate'
p2339
I2705
sS'cutie'
p2340
I3746
sS"haven't"
p2341
I431
sS'fool'
p2342
I1608
sS'evening'
p2343
I1351
sS'yo'
p2344
I521
sS'food'
p2345
I512
sS'ye'
p2346
I5389
sS"you've"
p2347
I621
sS'foot'
p2348
I1982
sS'yr'
p2349
I2429
sS'yu'
p2350
I5565
sS'android'
p2351
I2764
sS'fully'
p2352
I2288
sS'bless'
p2353
I860
sS'stopped'
p2354
I1308
sS'trailer'
p2355
I3022
sS'heavy'
p2356
I2572
sS'fees'
p2357
I5336
sS'democrat'
p2358
I2816
sS'todd'
p2359
I3872
sS'beyond'
p2360
I1309
sS'event'
p2361
I755
sS'robert'
p2362
I2800
sS'since'
p2363
I305
sS'safety'
p2364
I2328
sS'7'
p2365
I550
sS'issue'
p2366
I666
sS'ass'
p2367
I247
sS'pun'
p2368
I4798
sS'dirt'
p2369
I4718
sS'timeline'
p2370
I2522
sS'houses'
p2371
I4334
sS'reason'
p2372
I495
sS'base'
p2373
I2269
sS'asf'
p2374
I4799
sS'put'
p2375
I302
sS'turnout'
p2376
I5190
sS'launch'
p2377
I1787
sS'terrible'
p2378
I811
sS'caption'
p2379
I3268
sS'american'
p2380
I475
sS'expecting'
p2381
I2535
sS'syria'
p2382
I2648
sS'dis'
p2383
I2711
sS'\xc2\xaf\\_(\xe3\x83\x84)_/\xc2\xaf'
p2384
I2942
sS'fucked'
p2385
I1004
sS'talked'
p2386
I1852
sS'miss'
p2387
I231
sS'horse'
p2388
I2858
sS'st.'
p2389
I3093
sS'eddy'
p2390
I3072
sS'station'
p2391
I1652
sS'scheme'
p2392
I5208
sS'banana'
p2393
I5175
sS'selling'
p2394
I1757
sS'passed'
p2395
I1728
sS'jordan'
p2396
I2699
sS'albums'
p2397
I4526
sS'grocery'
p2398
I5477
sS'grew'
p2399
I3690
sS'kindly'
p2400
I5723
sS'grey'
p2401
I4239
sS'greg'
p2402
I3634
sS'toward'
p2403
I3944
sS'charlotte'
p2404
I1290
sS'texans'
p2405
I5517
sS'wasnt'
p2406
I2879
sS'7-11-01'
p2407
I4189
sS'randomly'
p2408
I4414
sS'juice'
p2409
I2806
sS'philly'
p2410
I2308
sS'lie'
p2411
I647
sS'tyvm'
p2412
I2911
sS'lil'
p2413
I940
sS'lin'
p2414
I5999
sS'officers'
p2415
I2367
sS'lit'
p2416
I695
sS'henny'
p2417
I5140
sS'lip'
p2418
I4061
sS'useless'
p2419
I3425
sS'liz'
p2420
I5865
sS'towards'
p2421
I1903
sS'quote'
p2422
I1245
sS'hired'
p2423
I4934
sS'experiences'
p2424
I4747
sS'eaten'
p2425
I5725
sS'approved'
p2426
I4995
sS'mobile'
p2427
I2181
sS'clear'
p2428
I929
sS'clean'
p2429
I1256
sS'usual'
p2430
I2255
sS'shoutout'
p2431
I2578
sS'hyped'
p2432
I5540
sS'tfw'
p2433
I4480
sS'northern'
p2434
I5990
sS'justice'
p2435
I1747
sS'flights'
p2436
I4142
sS'pretty'
p2437
I223
sS'circle'
p2438
I3659
sS'officials'
p2439
I3365
sS'meanwhile'
p2440
I2926
sS'trees'
p2441
I4800
sS'famous'
p2442
I1923
sS'feels'
p2443
I821
sS'pretending'
p2444
I3960
sS'basement'
p2445
I5097
sS'during'
p2446
I491
sS'badge'
p2447
I5278
sS'gloves'
p2448
I4259
sS'recommendations'
p2449
I3185
sS'hype'
p2450
I2276
sS'x'
p2451
I1005
sS'throwing'
p2452
I1752
sS'culture'
p2453
I1681
sS'protecting'
p2454
I5877
sS'close'
p2455
I553
sS'pictures'
p2456
I1168
sS'wow'
p2457
I246
sS'won'
p2458
I531
sS'probably'
p2459
I278
sS'rlly'
p2460
I5683
sS'conditions'
p2461
I5894
sS'steelers'
p2462
I4696
sS'missing'
p2463
I845
sS'spray'
p2464
I5073
sS'ranked'
p2465
I5074
sS'both'
p2466
I241
sS'secrets'
p2467
I4273
sS"wouldn't"
p2468
I516
sS'minorities'
p2469
I5226
sS'sensitive'
p2470
I4085
sS'forgotten'
p2471
I3796
sS'bots'
p2472
I4161
sS'liked'
p2473
I1089
sS'hackers'
p2474
I5390
sS'headed'
p2475
I2536
sS'battery'
p2476
I2749
sS'whatever'
p2477
I795
sS'header'
p2478
I4648
sS'likes'
p2479
I1261
sS'described'
p2480
I5759
sS'damn'
p2481
I330
sS'empty'
p2482
I2239
sS'sanders'
p2483
I2036
sS'lived'
p2484
I2061
sS'packs'
p2485
I5642
sS'crack'
p2486
I2410
sS'else'
p2487
I426
sS'anthony'
p2488
I2770
sS'lives'
p2489
I841
sS'look'
p2490
I147
sS'governor'
p2491
I3486
sS'pace'
p2492
I5965
sS'while'
p2493
I321
sS'match'
p2494
I1279
sS'animated'
p2495
I5574
sS'guide'
p2496
I3404
sS'loop'
p2497
I5054
sS'pack'
p2498
I1789
sS'voters'
p2499
I913
sS'wherever'
p2500
I4792
sS'hoax'
p2501
I5895
sS'reads'
p2502
I4811
sS'skype'
p2503
I4547
sS'ready'
p2504
I401
sS'anymore'
p2505
I599
sS'grant'
p2506
I5106
sS"gov't"
p2507
I5724
sS'belong'
p2508
I3900
sS'grand'
p2509
I2229
sS'conflict'
p2510
I4839
sS'used'
p2511
I382
sS'lawyers'
p2512
I4708
sS'ratings'
p2513
I2920
sS'bonus'
p2514
I4237
sS'blair'
p2515
I4935
sS'uses'
p2516
I1849
sS'user'
p2517
I2639
sS'older'
p2518
I2237
sS'grind'
p2519
I4575
sS'yankees'
p2520
I2439
sS'useful'
p2521
I2544
sS'praying'
p2522
I2346
sS'$'
p2523
I1196
sS'barack'
p2524
I4227
sS'questioned'
p2525
I5816
sS'soooooo'
p2526
I5841
sS'machado'
p2527
I3730
sS'...'
p2528
I39
sS'march'
p2529
I3224
sS'stein'
p2530
I2418
sS'showing'
p2531
I1086
sS'..?'
p2532
I5760
sS'game'
p2533
I179
sS'damage'
p2534
I3082
sS'wings'
p2535
I3150
sS'signal'
p2536
I5643
sS'donna'
p2537
I5555
sS'popular'
p2538
I2302
sS'weiner'
p2539
I4769
sS'sketch'
p2540
I5662
sS'parade'
p2541
I4776
sS'some'
p2542
I101
sS'trends'
p2543
I5791
sS'economic'
p2544
I2835
sS'savage'
p2545
I3002
sS'run'
p2546
I444
sS'step'
p2547
I1223
sS'2/2'
p2548
I3430
sS'wealth'
p2549
I5942
sS'shine'
p2550
I5765
sS'faith'
p2551
I2250
sS'wouldnt'
p2552
I5262
sS'awwww'
p2553
I4095
sS'aye'
p2554
I3374
sS'idk'
p2555
I519
sS'sponsored'
p2556
I5616
sS'idc'
p2557
I3025
sS'block'
p2558
I934
sS'seeing'
p2559
I562
sS'visit'
p2560
I698
sS'within'
p2561
I1668
sS'nonsense'
p2562
I2459
sS'rolls'
p2563
I4312
sS'smells'
p2564
I3670
sS'.,'
p2565
I3919
sS'..'
p2566
I118
sS'accountability'
p2567
I5160
sS'himself'
p2568
I898
sS'registered'
p2569
I3201
sS'gennifer'
p2570
I2850
sS'larry'
p2571
I3866
sS'haven\xe2\x80\x99t'
p2572
I4422
sS'authority'
p2573
I5034
sS'russian'
p2574
I1954
sS'info'
p2575
I971
sS'....'
p2576
I192
sS'wicked'
p2577
I5117
sS'chelsea'
p2578
I1213
sS'...?'
p2579
I2361
sS'uber'
p2580
I1503
sS'ordered'
p2581
I2050
sS'adults'
p2582
I4133
sS'nah'
p2583
I416
sS'fears'
p2584
I5367
sS'application'
p2585
I5663
sS'politicians'
p2586
I2718
sS'naw'
p2587
I3407
sS'tits'
p2588
I5644
sS'department'
p2589
I2829
sS'b/c'
p2590
I3145
sS'manhattan'
p2591
I1709
sS'draw'
p2592
I2253
sS'reportedly'
p2593
I5701
sS'resign'
p2594
I5617
sS'william'
p2595
I5709
sS'drag'
p2596
I2965
sS'e'
p2597
I1878
sS'dvd'
p2598
I5404
sS'required'
p2599
I3327
sS'youtube'
p2600
I1157
sS"she'd"
p2601
I5666
sS'depth'
p2602
I5416
sS'ignorant'
p2603
I1683
sS'underrated'
p2604
I3925
sS'requires'
p2605
I3514
sS'sounded'
p2606
I4645
sS'gf'
p2607
I3045
sS'go'
p2608
I85
sS'gm'
p2609
I3239
sS'tweeted'
p2610
I1269
sS'kate'
p2611
I4136
sS'suits'
p2612
I4468
sS'friendly'
p2613
I3387
sS'kitty'
p2614
I4425
sS'wave'
p2615
I3310
sS'facebook'
p2616
I981
sS'telling'
p2617
I871
sS'positions'
p2618
I4291
sS'button'
p2619
I1662
sS'michael'
p2620
I1404
sS'ryan'
p2621
I1619
sS'deleting'
p2622
I5037
sS'booty'
p2623
I3056
sS'carter'
p2624
I5217
sS'boots'
p2625
I3248
sS'waking'
p2626
I3616
sS'jump'
p2627
I2007
sS'booth'
p2628
I3130
sS'picked'
p2629
I1841
sS'download'
p2630
I2405
sS'click'
p2631
I2241
sS'plays'
p2632
I1508
sS'soup'
p2633
I2608
sS'cell'
p2634
I3163
sS'collins'
p2635
I4263
sS';'
p2636
I424
sS'stance'
p2637
I5596
sS'commercial'
p2638
I2406
sS'isn\xe2\x80\x99t'
p2639
I3005
sS'focused'
p2640
I3800
sS'bff'
p2641
I5124
sS'.......'
p2642
I2481
sS'products'
p2643
I2973
sS"weren't"
p2644
I1376
sS'danger'
p2645
I4489
sS'shake'
p2646
I2793
sS'win'
p2647
I308
sS'manage'
p2648
I3983
sS'wit'
p2649
I1793
sS'........'
p2650
I4409
sS'singing'
p2651
I2151
sS'cloud'
p2652
I3013
sS'crap'
p2653
I1316
sS'remains'
p2654
I5391
sS'camera'
p2655
I1414
sS'vehicle'
p2656
I4819
sS'jonathan'
p2657
I5733
sS'popped'
p2658
I4812
sS'1/2'
p2659
I2415
sS'started'
p2660
I462
sS'becomes'
p2661
I2412
sS':-('
p2662
I3246
sS'charming'
p2663
I5405
sS'starter'
p2664
I5609
sS':-/'
p2665
I5752
sS'salad'
p2666
I3823
sS'ride'
p2667
I1195
sS'donut'
p2668
I5340
sS'crossed'
p2669
I2935
sS'meet'
p2670
I513
sS'drops'
p2671
I3282
sS'potus'
p2672
I2126
sS'control'
p2673
I936
sS'links'
p2674
I2546
sS'halloween'
p2675
I1147
sS'pulling'
p2676
I3381
sS'wonderful'
p2677
I793
sS'vibe'
p2678
I4765
sS'poetry'
p2679
I5667
sS'located'
p2680
I5726
sS'farm'
p2681
I4197
sS'chiefs'
p2682
I5606
sS'spelling'
p2683
I5521
sS'agenda'
p2684
I2185
sS'healthcare'
p2685
I5141
sS'\xe2\x9a\xa1\xef\xb8\x8f'
p2686
I4944
sS'including'
p2687
I1642
sS'costume'
p2688
I3051
sS'cruise'
p2689
I5415
sS'mentioned'
p2690
I1991
sS'him'
p2691
I108
sS'sniffling'
p2692
I4758
sS'auto'
p2693
I5044
sS'hands'
p2694
I765
sS'front'
p2695
I819
sS'masters'
p2696
I5869
sS'university'
p2697
I2427
sS'guard'
p2698
I4087
sS'slide'
p2699
I2528
sS'mode'
p2700
I2450
sS'crossing'
p2701
I5803
sS'shaking'
p2702
I5118
sS'|'
p2703
I744
sS'measure'
p2704
I4293
sS'special'
p2705
I794
sS'secretly'
p2706
I5556
sS'entertainment'
p2707
I3797
sS'ricky'
p2708
I3934
sS'memes'
p2709
I2905
sS'cause'
p2710
I368
sS"one's"
p2711
I4102
sS'attending'
p2712
I3855
sS'completely'
p2713
I970
sS'jill'
p2714
I2473
sS'conservatives'
p2715
I4051
sS'princess'
p2716
I3397
sS'route'
p2717
I3692
sS'florida'
p2718
I1524
sS'times'
p2719
I356
sS'austin'
p2720
I3693
sS'designed'
p2721
I3255
sS'powerful'
p2722
I2028
sS'bitch'
p2723
I407
sS'quality'
p2724
I1550
sS'hiding'
p2725
I2490
sS"you're"
p2726
I93
sS'playlist'
p2727
I2747
sS'management'
p2728
I3920
sS'privacy'
p2729
I5840
sS'bears'
p2730
I2325
sS'data'
p2731
I975
sS'relations'
p2732
I5713
sS"clinton's"
p2733
I1497
sS'attack'
p2734
I1010
sS'ankle'
p2735
I5866
sS'perfectly'
p2736
I2875
sS'final'
p2737
I1284
sS'beard'
p2738
I3230
sS'2-0'
p2739
I4463
sS'exactly'
p2740
I427
sS'lists'
p2741
I5132
sS"that'll"
p2742
I3928
sS'herself'
p2743
I2555
sS'photograph'
p2744
I5268
sS'ben'
p2745
I2291
sS'bed'
p2746
I723
sS'bee'
p2747
I4641
sS'6th'
p2748
I2978
sS'bet'
p2749
I634
sS'portrait'
p2750
I4631
sS'need'
p2751
I97
sS'border'
p2752
I3935
sS'screw'
p2753
I3141
sS'bastard'
p2754
I4351
sS'able'
p2755
I780
sS'truck'
p2756
I2632
sS'brand'
p2757
I640
sS'aww'
p2758
I1466
sS'connected'
p2759
I4143
sS'awe'
p2760
I2885
sS'future'
p2761
I706
sS'consequences'
p2762
I4688
sS'upset'
p2763
I1499
sS'$$$'
p2764
I4045
sS'affair'
p2765
I5832
sS'anyway'
p2766
I910
sS'aren\xe2\x80\x99t'
p2767
I4358
sS'soldiers'
p2768
I5000
sS'shoes'
p2769
I1535
sS'partners'
p2770
I5347
sS'based'
p2771
I1073
sS'earned'
p2772
I3791
sS'('
p2773
I126
sS'winner'
p2774
I1634
sS'employee'
p2775
I4990
sS'michigan'
p2776
I3644
sS'overall'
p2777
I3581
sS'joint'
p2778
I3398
sS'joins'
p2779
I3806
sS'evolution'
p2780
I4916
sS'trucks'
p2781
I4996
sS'course'
p2782
I439
sS'shy'
p2783
I5241
sS'episodes'
p2784
I2224
sS'tuned'
p2785
I2822
sS'fridge'
p2786
I4176
sS'she'
p2787
I84
sS'wish'
p2788
I317
sS'grab'
p2789
I2166
sS'piss'
p2790
I3735
sS'spotted'
p2791
I3870
sS'prayers'
p2792
I2708
sS'cuts'
p2793
I3707
sS'humans'
p2794
I2306
sS'computer'
p2795
I2257
sS'desperate'
p2796
I2936
sS'stats'
p2797
I3070
sS'luv'
p2798
I2852
sS'nightmare'
p2799
I2594
sS'tend'
p2800
I4824
sS'written'
p2801
I1835
sS'correctly'
p2802
I3498
sS'horrible'
p2803
I1133
sS'neither'
p2804
I1447
sS'ken'
p2805
I5664
sS'importance'
p2806
I5284
sS'kicking'
p2807
I3592
sS'key'
p2808
I1025
sS'police'
p2809
I456
sS'precious'
p2810
I3474
sS'thumb'
p2811
I5699
sS'hits'
p2812
I2164
sS'limits'
p2813
I5368
sS'career'
p2814
I1352
sS'minds'
p2815
I2592
sS'admit'
p2816
I1834
sS'jersey'
p2817
I1176
sS'torn'
p2818
I4643
sS'tuesday'
p2819
I1423
sS'kings'
p2820
I5735
sS'quit'
p2821
I2047
sS'yay'
p2822
I1296
sS'addition'
p2823
I4975
sS'discrimination'
p2824
I5727
sS'yas'
p2825
I5424
sS'quiz'
p2826
I5734
sS'liberals'
p2827
I1942
sS'slowly'
p2828
I3305
sS'yah'
p2829
I3788
sS'pic'
p2830
I539
sS'diversity'
p2831
I4252
sS'league'
p2832
I1068
sS'releasing'
p2833
I3760
sS'tweets'
p2834
I571
sS'ours'
p2835
I4070
sS'kicks'
p2836
I5488
sS'smoking'
p2837
I2836
sS'brunch'
p2838
I3880
sS'shameless'
p2839
I5575
sS'novel'
p2840
I4204
sS'harder'
p2841
I2687
sS'gucci'
p2842
I5446
sS'owns'
p2843
I3814
sS'demo'
p2844
I3902
sS'dems'
p2845
I2205
sS'bucks'
p2846
I4274
sS'capture'
p2847
I4950
sS'began'
p2848
I4514
sS'funniest'
p2849
I3649
sS'strange'
p2850
I1910
sS'speaker'
p2851
I4306
sS'party'
p2852
I371
sS'effect'
p2853
I2282
sS'sooner'
p2854
I3642
sS'frequently'
p2855
I5092
sS'nation'
p2856
I1711
sS'destruction'
p2857
I4545
sS'//'
p2858
I2524
sS'lunch'
p2859
I1304
sS'i'
p2860
I4
sS'well'
p2861
I120
sS'welp'
p2862
I3240
sS'drone'
p2863
I4209
sS'accurate'
p2864
I1756
sS'sources'
p2865
I2650
sS'mistakes'
p2866
I4951
sS'40'
p2867
I1862
sS'skill'
p2868
I4621
sS'lauren'
p2869
I5716
sS'jeff'
p2870
I2659
sS'bullshit'
p2871
I1182
sS'kick'
p2872
I1563
sS'crushed'
p2873
I4410
sS'historic'
p2874
I5597
sS'immediately'
p2875
I1818
sS'loss'
p2876
I1504
sS'lincoln'
p2877
I5478
sS'necessary'
p2878
I2837
sS'lost'
p2879
I463
sS'clown'
p2880
I1944
sS'lose'
p2881
I730
sS'refugees'
p2882
I1578
sS'page'
p2883
I977
sS'twitter'
p2884
I225
sS'library'
p2885
I2433
sS'repeat'
p2886
I2396
sS'shes'
p2887
I2359
sS'cleveland'
p2888
I4359
sS'home'
p2889
I261
sS'liking'
p2890
I2867
sS'peter'
p2891
I3415
sS'broad'
p2892
I5191
sS'?'
p2893
I12
sS'duh'
p2894
I2667
sS'reaching'
p2895
I3691
sS'amy'
p2896
I3209
sS'freedom'
p2897
I2048
sS'tongue'
p2898
I4233
sS'equally'
p2899
I4400
sS'?????'
p2900
I2270
sS'glenn'
p2901
I5535
sS'washington'
p2902
I1638
sS'artists'
p2903
I3838
sS'capable'
p2904
I5370
sS'couldnt'
p2905
I5991
sS'strategy'
p2906
I2460
sS'accused'
p2907
I2972
sS'additional'
p2908
I4632
sS'pc'
p2909
I2861
sS'museum'
p2910
I2968
sS'noticed'
p2911
I1845
sS'inner'
p2912
I3515
sS'inspiration'
p2913
I2847
sS'north'
p2914
I1060
sS'hr'
p2915
I3342
sS'hs'
p2916
I4611
sS'hq'
p2917
I4612
sS'hw'
p2918
I3801
sS'forreal'
p2919
I5718
sS'blaming'
p2920
I3826
sS'hi'
p2921
I527
sS'ho'
p2922
I4294
sS'hm'
p2923
I4613
sS'hc'
p2924
I4945
sS'highest'
p2925
I3842
sS'eat'
p2926
I523
sS'he'
p2927
I42
sS'hosting'
p2928
I3549
sS'signed'
p2929
I1567
sS'po'
p2930
I5466
sS'\xe2\x80\x99'
p2931
I740
sS'cruel'
p2932
I5618
sS'dms'
p2933
I4464
sS'limit'
p2934
I3487
sS'pumped'
p2935
I4411
sS'piece'
p2936
I749
sS'display'
p2937
I4065
sS'universal'
p2938
I5133
sS'kisses'
p2939
I5440
sS'twist'
p2940
I3637
sS'beats'
p2941
I601
sS'education'
p2942
I1771
sS'girl'
p2943
I272
sS'diego'
p2944
I4054
sS'rumors'
p2945
I4173
sS'contest'
p2946
I3060
sS'offensive'
p2947
I2672
sS'talkin'
p2948
I3584
sS'stat'
p2949
I4707
sS'star'
p2950
I777
sS'insults'
p2951
I3936
sS'stan'
p2952
I5779
sS'friends'
p2953
I344
sS'coat'
p2954
I5171
sS'samsung'
p2955
I4738
sS'martin'
p2956
I3142
sS'uneducated'
p2957
I5055
sS'whoops'
p2958
I4825
sS'temperament'
p2959
I2928
sS'protest'
p2960
I1654
sS'asian'
p2961
I3296
sS'captain'
p2962
I3336
sS'whose'
p2963
I2281
sS'swag'
p2964
I5749
sS'buddy'
p2965
I1234
sS'sweetest'
p2966
I5335
sS'presents'
p2967
I5856
sS'teaching'
p2968
I3134
sS'sorry'
p2969
I253
sS'updated'
p2970
I2115
sS'rescue'
p2971
I5793
sS'harambe'
p2972
I3283
sS'updates'
p2973
I2402
sS'affect'
p2974
I5167
sS'skills'
p2975
I2848
sS'companies'
p2976
I2112
sS'solution'
p2977
I2489
sS'deplorable'
p2978
I1321
sS'heading'
p2979
I1712
sS'9pm'
p2980
I5447
sS'10k'
p2981
I5940
sS'force'
p2982
I1551
sS'japanese'
p2983
I3807
sS'across'
p2984
I1246
sS'likely'
p2985
I1169
sS'even'
p2986
I119
sS'wreck'
p2987
I5455
sS"tonight's"
p2988
I1457
sS'lights'
p2989
I2651
sS'dr.'
p2990
I2616
sS'new'
p2991
I91
sS'tips'
p2992
I2571
sS'ever'
p2993
I176
sS'pancakes'
p2994
I5656
sS'never'
p2995
I124
sS'meh'
p2996
I4190
sS'drew'
p2997
I3541
sS'10%'
p2998
I5315
sS'met'
p2999
I982
sS'\xef\xb8\x8f'
p3000
I173
sS'active'
p3001
I3755
sS'100'
p3002
I1343
sS"aren't"
p3003
I506
sS'dry'
p3004
I2451
sS'\xf0\x9f\x98\x82\xf0\x9f\x98\x82\xf0\x9f\x98\x82'
p3005
I488
sS'ignoring'
p3006
I4067
sS'credit'
p3007
I1145
sS"someone's"
p3008
I2838
sS'eyebrows'
p3009
I4777
sS'fantastic'
p3010
I1110
sS'campaign'
p3011
I489
sS'reagan'
p3012
I4285
sS'county'
p3013
I2644
sS'moral'
p3014
I3839
sS'guests'
p3015
I5075
sS'counts'
p3016
I3390
sS'criminals'
p3017
I3262
sS'army'
p3018
I3026
sS'arms'
p3019
I3076
sS'cali'
p3020
I2952
sS'call'
p3021
I322
sS'calm'
p3022
I2213
sS'typo'
p3023
I3316
sS'recommend'
p3024
I1696
sS'survive'
p3025
I2738
sS'nate'
p3026
I5557
sS'type'
p3027
I858
sS'tell'
p3028
I228
sS'snowden'
p3029
I5766
sS'posting'
p3030
I1980
sS'oscar'
p3031
I5142
sS'expose'
p3032
I3988
sS'odell'
p3033
I5479
sS'wars'
p3034
I2815
sS'berlin'
p3035
I5586
sS'warm'
p3036
I2256
sS'adult'
p3037
I2466
sS'room'
p3038
I608
sS'rights'
p3039
I1501
sS'setup'
p3040
I4247
sS'roof'
p3041
I4783
sS'whack'
p3042
I4892
sS'movies'
p3043
I1301
sS'root'
p3044
I4074
sS'vodka'
p3045
I4466
sS'give'
p3046
I264
sS'laughs'
p3047
I5062
sS'honey'
p3048
I2038
sS'foods'
p3049
I4600
sS'homie'
p3050
I1927
sS'soros'
p3051
I3937
sS'amazing'
p3052
I265
sS'answer'
p3053
I578
sS'gordon'
p3054
I4633
sS'minority'
p3055
I4018
sS'president'
p3056
I373
sS'purchase'
p3057
I2869
sS'attempt'
p3058
I3151
sS'third'
p3059
I1211
sS'capitalism'
p3060
I4527
sS'maintain'
p3061
I5576
sS'goodbye'
p3062
I3478
sS'athletes'
p3063
I5406
sS'fifa'
p3064
I4009
sS'deck'
p3065
I4474
sS'murray'
p3066
I5794
sS'keyboard'
p3067
I3625
sS'before'
p3068
I209
sS'what\xe2\x80\x99s'
p3069
I3479
sS'personal'
p3070
I1030
sS','
p3071
I7
sS'crew'
p3072
I2099
sS'better'
p3073
I142
sS'differently'
p3074
I4962
sS'weeks'
p3075
I715
sS'donors'
p3076
I3824
sS'workout'
p3077
I3676
sS'therapy'
p3078
I5316
sS'rhetoric'
p3079
I4395
sS'grammar'
p3080
I4253
sS'meat'
p3081
I2709
sS'arrested'
p3082
I2329
sS'roast'
p3083
I5426
sS'went'
p3084
I383
sS'side'
p3085
I591
sS'bone'
p3086
I4364
sS'mean'
p3087
I227
sS'gunna'
p3088
I3016
sS'aide'
p3089
I5035
sS'taught'
p3090
I2732
sS'trading'
p3091
I5518
sS'doug'
p3092
I5467
sS'aids'
p3093
I5898
sS'dawn'
p3094
I5875
sS'content'
p3095
I1702
sS'surprise'
p3096
I1439
sS'turning'
p3097
I2065
sS'cutest'
p3098
I2824
sS'u.s.'
p3099
I1341
sS'fave'
p3100
I1794
sS'revenge'
p3101
I5984
sS'struggle'
p3102
I2210
sS'hoodie'
p3103
I4459
sS'favs'
p3104
I4036
sS'starts'
p3105
I1191
sS'messages'
p3106
I2597
sS'moving'
p3107
I1097
sS'loud'
p3108
I1609
sS'fuckin'
p3109
I1151
sS'cleaning'
p3110
I3674
sS'features'
p3111
I3333
sS'grade'
p3112
I2080
sS'ily'
p3113
I2142
sS'hook'
p3114
I2733
sS'featured'
p3115
I4276
sS'hood'
p3116
I2657
sS'brock'
p3117
I5305
sS'girly'
p3118
I5876
sS'girls'
p3119
I686
sS'twisted'
p3120
I5857
sS'hollywood'
p3121
I2961
sS'gym'
p3122
I1691
sS'somewhat'
p3123
I5577
sS'begins'
p3124
I3010
sS'distance'
p3125
I3789
sS'anxiety'
p3126
I3049
sS'preparation'
p3127
I4956
sS'matter'
p3128
I629
sS'fabulous'
p3129
I2754
sS'silly'
p3130
I2030
sS'mini'
p3131
I3921
sS'sees'
p3132
I3775
sS'modern'
p3133
I2435
sS'mind'
p3134
I507
sS'mine'
p3135
I502
sS'seen'
p3136
I335
sS'seem'
p3137
I935
sS'sounding'
p3138
I5843
sS'seek'
p3139
I4401
sS'tells'
p3140
I1469
sS'chest'
p3141
I3965
sS'mario'
p3142
I4634
sS'regular'
p3143
I1831
sS'don'
p3144
I1879
sS'doc'
p3145
I3297
sS'alarm'
p3146
I3701
sS'm'
p3147
I1484
sS'dog'
p3148
I646
sS'doe'
p3149
I3974
sS'??????'
p3150
I4556
sS'definitely'
p3151
I384
sS'annoyed'
p3152
I3961
sS'dot'
p3153
I4107
sS'lyrics'
p3154
I3191
sS'retire'
p3155
I5702
sS'ending'
p3156
I2543
sS'poison'
p3157
I5275
sS'explain'
p3158
I999
sS'sugar'
p3159
I2515
sS'folks'
p3160
I901
sS'wearing'
p3161
I688
sS'monica'
p3162
I3865
sS'stop'
p3163
I211
sS'coast'
p3164
I1888
sS'earn'
p3165
I5966
sS'bar'
p3166
I897
sS'bay'
p3167
I1138
sS'bag'
p3168
I1426
sS'bad'
p3169
I189
sS'bae'
p3170
I2143
sS'ban'
p3171
I3243
sS'ears'
p3172
I2922
sS'fascinating'
p3173
I3571
sS'testing'
p3174
I3194
sS'decided'
p3175
I1522
sS'subject'
p3176
I3334
sS'pete'
p3177
I5570
sS'said'
p3178
I178
sS"there's"
p3179
I288
sS'lazy'
p3180
I2669
sS'omg'
p3181
I240
sS'wears'
p3182
I3608
sS'ignorance'
p3183
I2422
sS'cousin'
p3184
I2225
sS'picking'
p3185
I2389
sS'suggested'
p3186
I5076
sS'against'
p3187
I390
sS'russia'
p3188
I1595
sS'unk'
p3189
I3
sS'appeared'
p3190
I5761
sS'height'
p3191
I5804
sS'loaded'
p3192
I4542
sS'targeting'
p3193
I5218
sS'asks'
p3194
I2710
sS'basis'
p3195
I4759
sS'three'
p3196
I612
sS'tiny'
p3197
I1851
sS'commission'
p3198
I4511
sS'trigger'
p3199
I5407
sS'interest'
p3200
I1912
sS'basic'
p3201
I1977
sS'entered'
p3202
I5919
sS'lovely'
p3203
I997
sS'threw'
p3204
I2069
sS'website'
p3205
I866
sS'deeper'
p3206
I5967
sS'sunshine'
p3207
I4353
sS'sooooo'
p3208
I3223
sS'personally'
p3209
I1803
sS'tank'
p3210
I2685
sS'say'
p3211
I136
sS'ugly'
p3212
I1128
sS'near'
p3213
I877
sS'neat'
p3214
I4185
sS'balance'
p3215
I3165
sS'study'
p3216
I1531
sS'chilling'
p3217
I5558
sS'seven'
p3218
I3493
sS'mexico'
p3219
I2358
sS'is'
p3220
I10
sS'sushi'
p3221
I3825
sS'it'
p3222
I16
sS'ii'
p3223
I2532
sS'shame'
p3224
I1217
sS'cant'
p3225
I682
sS'im'
p3226
I196
sS'in'
p3227
I14
sS'seattle'
p3228
I2607
sS'mouse'
p3229
I5456
sS'id'
p3230
I1463
sS'ig'
p3231
I2832
sS'if'
p3232
I46
sS'grown'
p3233
I2865
sS'bottles'
p3234
I5045
sS'make'
p3235
I121
sS'meetup'
p3236
I5519
sS'potentially'
p3237
I5468
sS'hahah'
p3238
I2128
sS'unfortunate'
p3239
I5805
sS'80s'
p3240
I4198
sS'i\xe2\x80\x99ve'
p3241
I2234
sS'entitled'
p3242
I4813
sS'meets'
p3243
I4881
sS'kit'
p3244
I3763
sS'kim'
p3245
I2393
sS'jealous'
p3246
I1278
sS'opportunity'
p3247
I1934
sS"he'll"
p3248
I1568
sS'thoughts'
p3249
I906
sS'kid'
p3250
I753
sS'butter'
p3251
I2646
sS'programs'
p3252
I5227
sS'settled'
p3253
I5632
sS'failing'
p3254
I3439
sS'practices'
p3255
I4802
sS'claims'
p3256
I1631
sS'smoked'
p3257
I5953
sS'yours'
p3258
I917
sS'left'
p3259
I405
sS'just'
p3260
I31
sS'sentence'
p3261
I2840
sS'yea'
p3262
I602
sS'unfollow'
p3263
I3886
sS'unfair'
p3264
I3264
sS'fighters'
p3265
I5817
sS'identify'
p3266
I4921
sS'human'
p3267
I880
sS'facts'
p3268
I559
sS'yep'
p3269
I763
sS'yes'
p3270
I116
sS'yet'
p3271
I295
sS'candidate'
p3272
I806
sS'character'
p3273
I1117
sS'potential'
p3274
I2372
sS'save'
p3275
I779
sS'preseason'
p3276
I4983
sS'tmrw'
p3277
I5530
sS'background'
p3278
I2123
sS'destroy'
p3279
I2209
sS'govt'
p3280
I3233
sS'dreams'
p3281
I1669
sS'shoulder'
p3282
I3170
sS'nevermind'
p3283
I5931
sS'nude'
p3284
I5818
sS'performing'
p3285
I3241
sS'unnecessary'
p3286
I5176
sS'dean'
p3287
I3440
sS'deal'
p3288
I694
sS'somehow'
p3289
I1740
sS'dead'
p3290
I494
sS'wwe'
p3291
I3881
sS'intern'
p3292
I5941
sS'dear'
p3293
I1006
sS'notification'
p3294
I5046
sS'normal'
p3295
I1648
sS'arguing'
p3296
I3660
sS'\xf0\x9f\x94\xa5\xf0\x9f\x94\xa5\xf0\x9f\x94\xa5'
p3297
I3161
sS'\xf0\x9f\x98\x8d\xf0\x9f\x98\x8d'
p3298
I3014
sS'bold'
p3299
I4622
sS'burn'
p3300
I1928
sS'super'
p3301
I501
sS'?!?!'
p3302
I2500
sS'yelling'
p3303
I3183
sS'assault'
p3304
I3926
sS'magazine'
p3305
I3494
sS'afternoon'
p3306
I1713
sS'commit'
p3307
I3792
sS'automatically'
p3308
I4415
sS'nerve'
p3309
I4766
sS'whats'
p3310
I1566
sS'lied'
p3311
I1815
sS'selfie'
p3312
I2547
sS'negative'
p3313
I2000
sS'down'
p3314
I184
sS'lies'
p3315
I690
sS'flying'
p3316
I2147
sS'editor'
p3317
I4112
sS'form'
p3318
I1584
sS'batman'
p3319
I2985
sS'failure'
p3320
I2876
sS'streaming'
p3321
I2144
sS'attached'
p3322
I5098
sS'lips'
p3323
I3380
sS'whiskey'
p3324
I5107
sS'daddy'
p3325
I2357
sS'propaganda'
p3326
I2647
sS'kaine'
p3327
I4601
sS'sticks'
p3328
I5147
sS'classic'
p3329
I1363
sS'covers'
p3330
I3706
sS'sale'
p3331
I1727
sS'mediocre'
p3332
I5932
sS'shit'
p3333
I137
sS'generally'
p3334
I3724
sS'handed'
p3335
I5773
sS'digital'
p3336
I2811
sS'delivered'
p3337
I4157
sS'millennial'
p3338
I4164
sS'felt'
p3339
I1197
sS'diet'
p3340
I4119
sS'fell'
p3341
I1916
sS'weekend'
p3342
I411
sS'died'
p3343
I1335
sS'billion'
p3344
I2243
sS'happening'
p3345
I802
sS'apology'
p3346
I2975
sS'potato'
p3347
I4081
sS'assume'
p3348
I1893
sS'daily'
p3349
I1303
sS'jacket'
p3350
I2923
sS'teeth'
p3351
I2480
sS'managed'
p3352
I4037
sS'skip'
p3353
I3284
sS'madison'
p3354
I5111
sS'laura'
p3355
I4614
sS'manager'
p3356
I1515
sS'mile'
p3357
I4528
sS'skin'
p3358
I1754
sS'playoffs'
p3359
I2215
sS'mill'
p3360
I4558
sS'bomber'
p3361
I4413
sS'milk'
p3362
I2107
sS'21st'
p3363
I3411
sS'suicide'
p3364
I3021
sS'yummy'
p3365
I4663
sS'father'
p3366
I1471
sS'disgusting'
p3367
I1266
sS'0'
p3368
I1778
sS'finally'
p3369
I480
sS'marks'
p3370
I4893
sS'me'
p3371
I23
sS'string'
p3372
I5379
sS'tacos'
p3373
I3092
sS'lynch'
p3374
I4989
sS'ma'
p3375
I3602
sS'did'
p3376
I89
sS'die'
p3377
I774
sS'dig'
p3378
I2778
sS'accidentally'
p3379
I2533
sS'travels'
p3380
I4165
sS'item'
p3381
I5692
sS'round'
p3382
I1370
sS"it'll"
p3383
I1336
sS'shave'
p3384
I4831
sS'unexpected'
p3385
I5628
sS'dealing'
p3386
I3312
sS'eating'
p3387
I850
sS'afghanistan'
p3388
I5487
sS'adds'
p3389
I5056
sS'suspect'
p3390
I1613
sS'international'
p3391
I2462
sS'filled'
p3392
I2780
sS'install'
p3393
I4220
sS'makeup'
p3394
I1812
sS'french'
p3395
I2363
sS'wait'
p3396
I174
sS'box'
p3397
I1295
sS'boy'
p3398
I498
sS'yessss'
p3399
I3761
sS'canadian'
p3400
I3980
sS'shift'
p3401
I3171
sS'bot'
p3402
I3061
sS'bow'
p3403
I4260
sS'boi'
p3404
I3062
sS'suggestion'
p3405
I3852
sS'boo'
p3406
I1075
sS'bob'
p3407
I3593
sS'massage'
p3408
I5997
sS'genuinely'
p3409
I3369
sS'dick'
p3410
I903
sS'elect'
p3411
I3263
sS'merely'
p3412
I4655
sS'patriots'
p3413
I2906
sS'everybody'
p3414
I1173
sS'troops'
p3415
I4719
sS'sake'
p3416
I4709
sS'dude'
p3417
I337
sS'france'
p3418
I4050
sS'ahhh'
p3419
I2552
sS'thru'
p3420
I1371
sS'sharing'
p3421
I645
sS'acceptable'
p3422
I3472
sS'ooh'
p3423
I2771
sS'downtown'
p3424
I2797
sS'effort'
p3425
I2347
sS'fly'
p3426
I1451
sS'soul'
p3427
I1571
sS'reviews'
p3428
I3654
sS'wallet'
p3429
I5198
sS'sour'
p3430
I4820
sS'9th'
p3431
I3678
sS'growing'
p3432
I2341
sS'making'
p3433
I343
sS'arrive'
p3434
I5184
sS'bites'
p3435
I5792
sS'claim'
p3436
I1454
sS'crazy'
p3437
I378
sS'fuck'
p3438
I195
sS'agent'
p3439
I3156
sS'sample'
p3440
I3910
sS'council'
p3441
I4365
sS'pink'
p3442
I2673
sS'nyt'
p3443
I4732
sS'till'
p3444
I878
sS'sunday'
p3445
I654
sS'pure'
p3446
I1901
sS'nyc'
p3447
I370
sS'map'
p3448
I2833
sS'staying'
p3449
I1899
sS'designer'
p3450
I2947
sS'140'
p3451
I4887
sS'may'
p3452
I374
sS'max'
p3453
I2337
sS'snl'
p3454
I5920
sS'mac'
p3455
I1884
sS'mad'
p3456
I570
sS'end'
p3457
I388
sS'guys'
p3458
I219
sS'grow'
p3459
I1549
sS'man'
p3460
I149
sS'neck'
p3461
I2508
sS'johnson'
p3462
I1393
sS'maybe'
p3463
I226
sS'q'
p3464
I2340
sS'switch'
p3465
I1816
sS'jail'
p3466
I2138
sS'silence'
p3467
I3909
sS'african'
p3468
I1891
sS'basket'
p3469
I3962
sS'tall'
p3470
I3198
sS'talk'
p3471
I312
sS'cute'
p3472
I417
sS'shield'
p3473
I5423
sS'wishing'
p3474
I2132
sS'pitch'
p3475
I2273
sS'group'
p3476
I831
sS'thank'
p3477
I100
sS'interesting'
p3478
I596
sS'\xf0\x9f\x98\x82\xf0\x9f\x98\x82\xf0\x9f\x98\x82\xf0\x9f\x98\x82'
p3479
I1288
sS'coaching'
p3480
I4591
sS'policy'
p3481
I1240
sS'mail'
p3482
I2298
sS'msnbc'
p3483
I3950
sS'main'
p3484
I1632
sS'texas'
p3485
I1628
sS'views'
p3486
I2149
sS'killer'
p3487
I2854
sS'sarcastic'
p3488
I3981
sS'moron'
p3489
I2071
sS'kkk'
p3490
I4214
sS'killed'
p3491
I771
sS'artist'
p3492
I1620
sS'rock'
p3493
I881
sS'profiling'
p3494
I5998
sS'unlock'
p3495
I4726
sS'deplorables'
p3496
I3032
sS'description'
p3497
I4855
sS'canada'
p3498
I1890
sS'living'
p3499
I813
sS'jackson'
p3500
I2868
sS'3rd'
p3501
I1390
sS'miles'
p3502
I2334
sS'nudes'
p3503
I4865
sS'correct'
p3504
I943
sS'wasn\xe2\x80\x99t'
p3505
I5954
sS'earlier'
p3506
I1041
sS'monster'
p3507
I2342
sS'california'
p3508
I1183
sS'cough'
p3509
I4637
sS'keith'
p3510
I2984
sS'advance'
p3511
I3572
sS'language'
p3512
I1745
sS'headphones'
p3513
I3349
sS'thing'
p3514
I168
sS'think'
p3515
I74
sS'waited'
p3516
I5323
sS'first'
p3517
I143
sS'cheese'
p3518
I1142
sS'question'
p3519
I410
sS'rachel'
p3520
I4760
sS'crib'
p3521
I5904
sS'americans'
p3522
I770
sS'long'
p3523
I255
sS'suspended'
p3524
I4402
sS'carry'
p3525
I2113
sS'sounds'
p3526
I379
sS'little'
p3527
I258
sS'slept'
p3528
I3624
sS'anyone'
p3529
I271
sS'speaking'
p3530
I1099
sS'meme'
p3531
I1828
sS'eyes'
p3532
I851
sS'memo'
p3533
I5969
sS'broadcast'
p3534
I3873
sS'hillary'
p3535
I148
sS'butt'
p3536
I1981
sS"here's"
p3537
I600
sS'11'
p3538
I1358
sS'10'
p3539
I450
sS'13'
p3540
I1819
sS'12'
p3541
I1049
sS'15'
p3542
I1084
sS'14'
p3543
I2289
sS'17'
p3544
I2046
sS'16'
p3545
I1656
sS'19'
p3546
I3614
sS'18'
p3547
I2135
sS'gotta'
p3548
I326
sS'protected'
p3549
I5063
sS'1%'
p3550
I4840
sS'were'
p3551
I129
sS'coconut'
p3552
I5269
sS'lick'
p3553
I4826
sS'topics'
p3554
I5087
sS'marijuana'
p3555
I4078
sS'voices'
p3556
I4327
sS'conspiracy'
p3557
I1904
sS'nazi'
p3558
I3182
sS'calendar'
p3559
I4499
sS'kevin'
p3560
I2219
sS'speakers'
p3561
I4814
sS'answering'
p3562
I3521
sS'shocked'
p3563
I2082
sS'clintons'
p3564
I2946
sS'squad'
p3565
I2394
sS'performance'
p3566
I1366
sS'switching'
p3567
I5693
sS'channel'
p3568
I1467
sS'200'
p3569
I3679
sS'pain'
p3570
I1615
sS'norman'
p3571
I4909
sS'theatre'
p3572
I5428
sS'roster'
p3573
I3955
sS'track'
p3574
I1252
sS'paid'
p3575
I859
sS'beta'
p3576
I4548
sS'20%'
p3577
I5295
sS'pair'
p3578
I1924
sS'queens'
p3579
I2955
sS'cuban'
p3580
I2362
sS'especially'
p3581
I754
sS'surprising'
p3582
I3386
sS'properly'
p3583
I3530
sS'reed'
p3584
I5183
sS'shop'
p3585
I1597
sS'rating'
p3586
I5844
sS'shot'
p3587
I563
sS'show'
p3588
I177
sS'moderator'
p3589
I2386
sS'shoe'
p3590
I3077
sS'corner'
p3591
I1930
sS'forecast'
p3592
I5858
sS'treasure'
p3593
I5108
sS'enough'
p3594
I347
sS'black'
p3595
I266
sS'awareness'
p3596
I4000
sS'get'
p3597
I52
sS'killers'
p3598
I5906
sS'nearly'
p3599
I1688
sS'gee'
p3600
I5819
sS'gen'
p3601
I5161
sS'gem'
p3602
I4682
sS'secondary'
p3603
I4727
sS'morning'
p3604
I304
sS'stupid'
p3605
I533
sS'finishing'
p3606
I4623
sS'honesty'
p3607
I5114
sS"bill's"
p3608
I5185
sS'seat'
p3609
I1776
sS'sean'
p3610
I2001
sS'?!?!?'
p3611
I4946
sS'wonder'
p3612
I572
sS'24/7'
p3613
I4055
sS'label'
p3614
I4460
sS'behind'
p3615
I702
sS'gaga'
p3616
I4664
sS'reading'
p3617
I699
sS'checks'
p3618
I3681
sS'affordable'
p3619
I5349
sS'infrastructure'
p3620
I5109
sS'august'
p3621
I4416
sS'parent'
p3622
I5357
sS'jr'
p3623
I4518
sS'killing'
p3624
I1056
sS'jk'
p3625
I2078
sS'js'
p3626
I4895
sS'jfk'
p3627
I4841
sS'dates'
p3628
I2957
sS'fried'
p3629
I3344
sS'similar'
p3630
I1425
sS'according'
p3631
I1761
sS'tour'
p3632
I1179
sS'highlights'
p3633
I4080
sS'spare'
p3634
I4818
sS'among'
p3635
I2045
sS'cancer'
p3636
I2190
sS'cancel'
p3637
I3528
sS'custody'
p3638
I5448
sS'nose'
p3639
I2278
sS'considering'
p3640
I1430
sS'arts'
p3641
I5380
sS'trolling'
p3642
I3046
sS'marc'
p3643
I4484
sS'mark'
p3644
I1088
sS'mars'
p3645
I2927
sS'mary'
p3646
I2740
sS'educated'
p3647
I3615
sS'shopping'
p3648
I2299
sS'offered'
p3649
I3827
sS'dramatic'
p3650
I4025
sS'wake'
p3651
I1087
sS'those'
p3652
I181
sS'sound'
p3653
I739
sS'promising'
p3654
I5921
sS'cancelled'
p3655
I3089
sS'hmmmm'
p3656
I5296
sS'cock'
p3657
I4335
sS'eventually'
p3658
I2745
sS'coffee'
p3659
I628
sS'sleeping'
p3660
I1870
sS'middle'
p3661
I1007
sS'sudden'
p3662
I5192
sS'everyday'
p3663
I1250
sS'bags'
p3664
I3828
sS'different'
p3665
I451
sS'pat'
p3666
I4455
sS'doctor'
p3667
I2568
sS'pay'
p3668
I482
sS'pepe'
p3669
I3798
sS'same'
p3670
I160
sS'speech'
p3671
I1177
sS'arguments'
p3672
I5506
sS'struggling'
p3673
I3630
sS'emojis'
p3674
I4383
sS'pal'
p3675
I3094
sS'oil'
p3676
I2499
sS'remake'
p3677
I5859
sS'running'
p3678
I603
sS'totally'
p3679
I540
sS'conor'
p3680
I5985
sS'hispanics'
p3681
I5863
sS'bang'
p3682
I4767
sS'accountable'
p3683
I4228
sS'solve'
p3684
I3396
sS'bottle'
p3685
I1781
sS'parody'
p3686
I4543
sS'gates'
p3687
I4778
sS'money'
p3688
I355
sS'kasich'
p3689
I4205
sS'flavor'
p3690
I3946
sS'clueless'
p3691
I3420
sS'nap'
p3692
I2633
sS'ahhhh'
p3693
I4429
sS'4'
p3694
I310
sS'jake'
p3695
I4277
sS'nat'
p3696
I3520
sS'mom'
p3697
I568
sS'mob'
p3698
I5657
sS'disappointed'
p3699
I2014
sS'\xf0\x9f\x8c\x9a'
p3700
I4389
sS'patronus'
p3701
I3566
sS'lightning'
p3702
I4436
sS'facing'
p3703
I4984
sS'audience'
p3704
I2091
sS'laughing'
p3705
I1154
sS'served'
p3706
I3585
sS'passionate'
p3707
I5229
sS'jews'
p3708
I1565
sS'doll'
p3709
I5796
sS'slavery'
p3710
I3973
sS'images'
p3711
I4553
sS'gross'
p3712
I1983
sS'outs'
p3713
I5868
sS'confirm'
p3714
I2995
sS'critical'
p3715
I3426
sS'moderate'
p3716
I5489
sS'knife'
p3717
I5193
sS'seconds'
p3718
I1519
sS'fitness'
p3719
I4853
sS'broken'
p3720
I1517
sS'stations'
p3721
I5646
sS'island'
p3722
I1460
sS'violence'
p3723
I1506
sS'mixed'
p3724
I2941
sS'road'
p3725
I1340
sS'whites'
p3726
I2573
sS'spreading'
p3727
I3554
sS'blessed'
p3728
I1902
sS'inbox'
p3729
I5897
sS'dreaming'
p3730
I5658
sS'fantasy'
p3731
I1415
sS'hysterical'
p3732
I5358
sS'spicy'
p3733
I5036
sS'strikes'
p3734
I4019
sS'belated'
p3735
I4689
sS'spice'
p3736
I2945
sS'romantic'
p3737
I6000
sS"wasn't"
p3738
I386
sS'leaked'
p3739
I4866
sS'videos'
p3740
I1214
sS'deep'
p3741
I1050
sS'fellow'
p3742
I2511
sS'imagination'
p3743
I5970
sS'file'
p3744
I3346
sS'girlfriend'
p3745
I2604
sS'lifetime'
p3746
I3516
sS'syrian'
p3747
I2856
sS'film'
p3748
I1064
sS'fill'
p3749
I3006
sS'again'
p3750
I185
sS'drivers'
p3751
I3179
sS'field'
p3752
I1281
sS'obsessed'
p3753
I2129
sS'students'
p3754
I1456
sS'\xf0\x9f\xa4\x98\xf0\x9f\x8f\xbd'
p3755
I5986
sS'\xf0\x9f\xa4\x98\xf0\x9f\x8f\xbc'
p3756
I4286
sS'important'
p3757
I643
sS"she's"
p3758
I283
sS'chris'
p3759
I1115
sS'remote'
p3760
I3738
sS'intentional'
p3761
I3288
sS'u'
p3762
I76
sS'alright'
p3763
I1362
sS'starting'
p3764
I734
sS'represent'
p3765
I3599
sS'liar'
p3766
I1198
sS'forget'
p3767
I661
sS'founder'
p3768
I4656
sS'dollar'
p3769
I2931
sS'commute'
p3770
I4936
sS'talks'
p3771
I1817
sS'children'
p3772
I1039
sS'emily'
p3773
I5119
sS'imma'
p3774
I1695
sS'they\xe2\x80\x99re'
p3775
I3366
sS'enjoying'
p3776
I1978
sS'returning'
p3777
I5806
sS'fall'
p3778
I587
sS'difference'
p3779
I1012
sS'steve'
p3780
I1897
sS'pre'
p3781
I3036
sS'celebrity'
p3782
I4910
sS'saudi'
p3783
I2988
sS'20th'
p3784
I5710
sS'neighborhood'
p3785
I2498
sS'burger'
p3786
I3108
sS'zero'
p3787
I1477
sS'titles'
p3788
I5381
sS'perspective'
p3789
I2781
sS'lawyer'
p3790
I3708
sS'further'
p3791
I2134
sS'psycho'
p3792
I5842
sS'90s'
p3793
I3547
sS'abc'
p3794
I4529
sS'stood'
p3795
I5007
sS'abt'
p3796
I1743
sS'tribute'
p3797
I4492
sS'public'
p3798
I691
sS'movement'
p3799
I1192
sS'tattoos'
p3800
I5573
sS"c'mon"
p3801
I4593
sS'investigating'
p3802
I5064
sS'campaigns'
p3803
I5249
sS'speeches'
p3804
I5811
sS'bible'
p3805
I3047
sS'airport'
p3806
I1643
sS'published'
p3807
I3603
sS'mentions'
p3808
I2100
sS'transit'
p3809
I3328
sS'africa'
p3810
I2677
sS'\xf0\x9f\x99\x88'
p3811
I2880
sS'4the'
p3812
I2165
sS'you\xe2\x80\x99re'
p3813
I1510
sS'\xf0\x9f\x99\x8c'
p3814
I2916
sS'\xf0\x9f\x99\x8f'
p3815
I2917
sS'\xf0\x9f\x99\x81'
p3816
I4967
sS'\xf0\x9f\x99\x82'
p3817
I2220
sS'\xf0\x9f\x99\x83'
p3818
I988
sS'armed'
p3819
I4134
sS'eye'
p3820
I1224
sS'texting'
p3821
I3532
sS'two'
p3822
I233
sS'comparing'
p3823
I3956
sS'stolen'
p3824
I4652
sS'landed'
p3825
I4888
sS"ain't"
p3826
I428
sS'particular'
p3827
I3436
sS'town'
p3828
I1079
sS'none'
p3829
I1262
sS'hour'
p3830
I711
sS'recall'
p3831
I2969
sS'sucks'
p3832
I870
sS'dev'
p3833
I5243
sS'remain'
p3834
I4179
sS'dem'
p3835
I2614
sS'def'
p3836
I986
sS'compare'
p3837
I2772
sS'share'
p3838
I632
sS'lolol'
p3839
I3319
sS'minimum'
p3840
I4784
sS'numbers'
p3841
I1411
sS'sharp'
p3842
I4673
sS'!'
p3843
I9
sS'pence'
p3844
I2817
sS'needs'
p3845
I362
sS'awkward'
p3846
I2626
sS'acts'
p3847
I4221
sS'maps'
p3848
I5520
sS'advice'
p3849
I1706
sS'questioning'
p3850
I4602
sS'blood'
p3851
I1527
sS'coming'
p3852
I269
sS'response'
p3853
I996
sS'brady'
p3854
I3043
sS"that'd"
p3855
I4105
sS'tweeting'
p3856
I1027
sS'eats'
p3857
I3856
sS'dragon'
p3858
I4261
sS'responsibility'
p3859
I2893
sS'lmfaooooo'
p3860
I5342
sS'pleasure'
p3861
I1498
sS'\xf0\x9f\x98\xa9\xf0\x9f\x98\xa9\xf0\x9f\x98\xa9'
p3862
I5536
sS'playing'
p3863
I391
sS"that's"
p3864
I70
sS'radar'
p3865
I5120
sS'through'
p3866
I372
sS'existence'
p3867
I4152
sS'suffer'
p3868
I5057
sS'24'
p3869
I1921
sS'messed'
p3870
I3105
sS'26'
p3871
I3957
sS'27'
p3872
I4544
sS'20'
p3873
I894
sS'21'
p3874
I2172
sS'22'
p3875
I3027
sS'23'
p3876
I3887
sS'28'
p3877
I4056
sS'29'
p3878
I3548
sS'late'
p3879
I544
sS'penn'
p3880
I4229
sS'hurting'
p3881
I4447
sS'someone'
p3882
I206
sS'disrespectful'
p3883
I4403
sS'seeking'
p3884
I5008
sS'walls'
p3885
I4922
sS'complain'
p3886
I2794
sS'viewers'
p3887
I5371
sS'mystery'
p3888
I4262
sS'easily'
p3889
I1746
sS'pregnant'
p3890
I3677
sS'drake'
p3891
I2467
sS'gender'
p3892
I3173
sS'repeating'
p3893
I5750
sS'2k'
p3894
I2660
sS'everyone'
p3895
I243
sS'mental'
p3896
I2413
sS'house'
p3897
I404
sS'energy'
p3898
I1621
sS'hard'
p3899
I316
sS'idea'
p3900
I420
sS'engaging'
p3901
I5587
sS'connect'
p3902
I2518
sS'portland'
p3903
I4739
sS'comic'
p3904
I2757
sS'initiatives'
p3905
I5531
sS'flower'
p3906
I5240
sS'funding'
p3907
I3269
sS'childish'
p3908
I4137
sS'acting'
p3909
I1837
sS"they'll"
p3910
I1380
sS'print'
p3911
I3084
sS'assist'
p3912
I3636
sS'bully'
p3913
I2914
sS'pathetic'
p3914
I1963
sS'mmm'
p3915
I5629
sS'giveaway'
p3916
I4753
sS'members'
p3917
I1974
sS'follower'
p3918
I5260
sS'backed'
p3919
I4535
sS'beginning'
p3920
I1976
sS'benefits'
p3921
I3449
sS'computers'
p3922
I5088
sS'dont'
p3923
I453
sS'done'
p3924
I299
sS'fiction'
p3925
I4384
sS'divorce'
p3926
I3414
sS'5th'
p3927
I2438
sS'least'
p3928
I369
sS'paint'
p3929
I3126
sS'statement'
p3930
I1132
sS'mama'
p3931
I2801
sS'beloved'
p3932
I5259
sS'park'
p3933
I941
sS'part'
p3934
I357
sS'livestream'
p3935
I5943
sS'doctors'
p3936
I3867
sS'trolls'
p3937
I3339
sS'believe'
p3938
I282
sS'b'
p3939
I630
sS'gotten'
p3940
I1612
sS'youth'
p3941
I2896
sS'2020'
p3942
I5992
sS'supposed'
p3943
I896
sS'treated'
p3944
I4062
sS'outta'
p3945
I1905
sS'nominee'
p3946
I3275
sS'ages'
p3947
I3555
sS'hangout'
p3948
I5330
sS'confirms'
p3949
I4896
sS'orders'
p3950
I3833
sS'mountain'
p3951
I3808
sS'built'
p3952
I1987
sS'dancing'
p3953
I2558
sS'couch'
p3954
I3313
sS'majority'
p3955
I2330
sS'build'
p3956
I1165
sS'obviously'
p3957
I1040
sS'commentary'
p3958
I3762
sS'eggs'
p3959
I3736
sS'chart'
p3960
I4785
sS'most'
p3961
I210
sS'charm'
p3962
I5162
sS'significant'
p3963
I4343
sS'services'
p3964
I2446
sS'extremely'
p3965
I1678
sS'weigh'
p3966
I4743
sS'joining'
p3967
I1896
sS'thomas'
p3968
I3127
sS'particularly'
p3969
I5186
sS'businesses'
p3970
I3367
sS"man's"
p3971
I4506
sS'fine'
p3972
I588
sS'networks'
p3973
I4404
sS'giant'
p3974
I2031
sS'nervous'
p3975
I2279
sS'ruin'
p3976
I2820
sS'poppin'
p3977
I5270
sS'idiots'
p3978
I2076
sS'8'
p3979
I735
sS'beyonc\xc3\xa9'
p3980
I4292
sS'permission'
p3981
I5682
sS'luke'
p3982
I3829
sS'express'
p3983
I2977
sS'cheaper'
p3984
I3682
sS'courage'
p3985
I5199
sS'remove'
p3986
I2670
sS'common'
p3987
I1300
sS'restaurants'
p3988
I5163
sS'vine'
p3989
I4192
sS'lion'
p3990
I4138
sS'individual'
p3991
I3542
sS'retweet'
p3992
I1209
sS'expert'
p3993
I3164
sS'visiting'
p3994
I3078
sS'please'
p3995
I182
sS'fans'
p3996
I595
sS'burned'
p3997
I5899
sS'donate'
p3998
I3110
sS'rosie'
p3999
I5304
sS'historical'
p4000
I5156
sS'pissed'
p4001
I2063
sS'reverse'
p4002
I5143
sS'restaurant'
p4003
I2520
sS'annual'
p4004
I4568
sS'foreign'
p4005
I1906
sS'alot'
p4006
I3285
sS'baltimore'
p4007
I5134
sS'!!!!!!!'
p4008
I2999
sS'point'
p4009
I327
sS'simple'
p4010
I1259
sS'lbs'
p4011
I5010
sS'fashion'
p4012
I1679
sS'simply'
p4013
I1767
sS'throughout'
p4014
I4052
sS'expensive'
p4015
I1958
sS'hannity'
p4016
I2825
sS'raise'
p4017
I2122
sS'autocorrect'
p4018
I5630
sS'secret'
p4019
I1356
sS'dropping'
p4020
I2263
sS'meeting'
p4021
I973
sS'gay'
p4022
I1200
sS'gas'
p4023
I1714
sS'gap'
p4024
I5058
sS'understand'
p4025
I509
sS'prices'
p4026
I3128
sS'politician'
p4027
I3080
sS'survivor'
p4028
I5637
sS'raw'
p4029
I2380
sS'solid'
p4030
I1646
sS'bill'
p4031
I633
sS'convo'
p4032
I2562
sS'elections'
p4033
I3963
sS'replaced'
p4034
I4278
sS'fun'
p4035
I287
sS'century'
p4036
I3594
sS'itself'
p4037
I1722
sS'italy'
p4038
I4493
sS'proved'
p4039
I4099
sS'development'
p4040
I1990
sS'keys'
p4041
I4193
sS'yesterday'
p4042
I637
sS'moment'
p4043
I693
sS'purpose'
p4044
I1911
sS'task'
p4045
I5711
sS'spent'
p4046
I1199
sS'y'
p4047
I1804
sS'entry'
p4048
I3694
sS'spend'
p4049
I1267
sS'i\xe2\x80\x99m'
p4050
I728
sS'\xe2\x9d\xa4'
p4051
I153
sS'ceo'
p4052
I2312
sS'i\xe2\x80\x99d'
p4053
I4385
sS'boutta'
p4054
I5164
sS'shape'
p4055
I3122
sS'alternative'
p4056
I3896
sS'injuries'
p4057
I3391
sS'letting'
p4058
I1721
sS'cut'
p4059
I839
sS'cus'
p4060
I3858
sS'cup'
p4061
I1764
sS'hated'
p4062
I2523
sS'cuz'
p4063
I775
sS'source'
p4064
I1149
sS'homies'
p4065
I5510
sS'snap'
p4066
I1299
sS'cum'
p4067
I5631
sS'excited'
p4068
I419
sS'hates'
p4069
I1846
sS'hater'
p4070
I4206
sS'bin'
p4071
I5812
sS'bio'
p4072
I2526
sS'big'
p4073
I236
sS'mins'
p4074
I1272
sS'matters'
p4075
I1774
sS'biz'
p4076
I4010
sS'bit'
p4077
I609
sS'knock'
p4078
I2932
sS'follows'
p4079
I4549
sS'killary'
p4080
I4952
sS'google'
p4081
I808
sS'often'
p4082
I1045
sS'absolutely'
p4083
I597
sS'magnificent'
p4084
I4674
sS'back'
p4085
I111
sS'ah'
p4086
I902
sS'examples'
p4087
I3952
sS'mirror'
p4088
I2692
sS'server'
p4089
I2722
sS'ourselves'
p4090
I3942
sS'scale'
p4091
I3556
sS'contacts'
p4092
I5704
sS'pet'
p4093
I3543
sS'decision'
p4094
I1470
sS'per'
p4095
I1492
sS'pen'
p4096
I4465
sS'connecting'
p4097
I5610
sS'pee'
p4098
I5169
sS'epic'
p4099
I2154
sS'either'
p4100
I412
sS'patient'
p4101
I3975
sS'\xe2\x84\xa2'
p4102
I5507
sS'remembered'
p4103
I3361
sS'ufc'
p4104
I4985
sS'continuing'
p4105
I5026
sS'use'
p4106
I250
sS'from'
p4107
I54
sS'8pm'
p4108
I4947
sS'mrs.'
p4109
I4308
sS'drama'
p4110
I2599
sS'beans'
p4111
I3598
sS'hahahah'
p4112
I4394
sS'jimmy'
p4113
I1795
sS'folsom'
p4114
I5310
sS'steven'
p4115
I4296
sS'lesson'
p4116
I3118
sS'delusional'
p4117
I3290
sS'&lt;'
p4118
I537
sS'forward'
p4119
I576
sS'bored'
p4120
I2383
sS'opponent'
p4121
I5364
sS'invite'
p4122
I1472
sS'immigration'
p4123
I2551
sS'boys'
p4124
I875
sS'yesssss'
p4125
I5833
sS'getty'
p4126
I5661
sS'hopes'
p4127
I3742
sS'\xe2\x99\xa5'
p4128
I3579
sS'\xe2\x99\xa1'
p4129
I4386
sS'directed'
p4130
I4592
sS'planet'
p4131
I2235
sS"tomorrow's"
p4132
I3905
sS'constant'
p4133
I3647
sS'flow'
p4134
I4166
sS'single'
p4135
I697
sS'cure'
p4136
I4635
sS'cafe'
p4137
I4336
sS'%'
p4138
I2641
sS'excuses'
p4139
I3505
sS'explaining'
p4140
I4867
sS'favourite'
p4141
I3252
sS'prepared'
p4142
I1945
sS'lens'
p4143
I5955
sS"guy's"
p4144
I5417
sS'utterly'
p4145
I5297
sS'cooker'
p4146
I5230
sS'cooked'
p4147
I4472
sS'2000'
p4148
I4932
sS'2007'
p4149
I5324
sS'2008'
p4150
I2477
sS'2009'
p4151
I5770
sS'jason'
p4152
I2574
sS'lmaooooo'
p4153
I3635
sS'peanut'
p4154
I4003
sS'helps'
p4155
I1384
sS'random'
p4156
I1441
sS'putting'
p4157
I1190
sS'entire'
p4158
I731
sS'meek'
p4159
I2320
sS'knight'
p4160
I5242
sS'shock'
p4161
I3362
sS'min'
p4162
I1873
sS'havent'
p4163
I3843
sS'joey'
p4164
I4328
sS'uncomfortable'
p4165
I3298
sS'depression'
p4166
I5429
sS'ooo'
p4167
I5795
sS'chicago'
p4168
I1459
sS'giving'
p4169
I759
sS'anthem'
p4170
I2440
sS'fat'
p4171
I1146
sS'access'
p4172
I1800
sS'exercise'
p4173
I4770
sS'3d'
p4174
I5089
sS'body'
p4175
I890
sS'toast'
p4176
I4040
sS'exchange'
p4177
I3868
sS'packing'
p4178
I5231
sS'healing'
p4179
I5620
sS'others'
p4180
I761
sS'sing'
p4181
I2192
sS'safer'
p4182
I5232
sS'extreme'
p4183
I3574
sS'birther'
p4184
I969
sS'talent'
p4185
I2216
sS'31'
p4186
I5144
sS'30'
p4187
I834
sS'35'
p4188
I4068
sS'honor'
p4189
I1482
sS'named'
p4190
I1690
sS'presidents'
p4191
I5496
sS'private'
p4192
I1604
sS'names'
p4193
I1996
sS'scandal'
p4194
I3639
sS"hillary's"
p4195
I1009
sS'he\xe2\x80\x99s'
p4196
I2761
sS'themselves'
p4197
I1221
sS'upcoming'
p4198
I3976
sS'trail'
p4199
I4234
sS'train'
p4200
I760
sS'ashamed'
p4201
I3423
sS'nypd'
p4202
I3525
sS'subscription'
p4203
I5705
sS'account'
p4204
I680
sS'f'
p4205
I2114
sS'unreal'
p4206
I2958
sS'obvious'
p4207
I1869
sS'praise'
p4208
I3830
sS'smear'
p4209
I5896
sS'closing'
p4210
I3277
sS'didnt'
p4211
I1273
sS'snacks'
p4212
I4470
sS'native'
p4213
I3166
sS'democracy'
p4214
I3038
sS'lame'
p4215
I2563
sS'holds'
p4216
I3462
sS'winners'
p4217
I3751
sS'stock'
p4218
I2625
sS'profile'
p4219
I1707
sS'buildings'
p4220
I5728
sS'fran'
p4221
I5082
sS'lmfaoo'
p4222
I2827
sS'bothered'
p4223
I5418
sS'chasing'
p4224
I5822
sS'lines'
p4225
I2311
sS'chief'
p4226
I1959
sS'addiction'
p4227
I4690
sS'wedding'
p4228
I1530
sS'dt'
p4229
I3932
sS'galaxy'
p4230
I4710
sS'bunch'
p4231
I1349
sS'le'
p4232
I5559
sS'la'
p4233
I862
sS'winning'
p4234
I944
sS'willing'
p4235
I2233
sS'criminal'
p4236
I1427
sS'dad'
p4237
I791
sS'greater'
p4238
I3834
sS'dam'
p4239
I5907
sS'dan'
p4240
I3174
sS'spell'
p4241
I2693
sS'dat'
p4242
I3220
sS'mention'
p4243
I1315
sS'cutting'
p4244
I3203
sS'day'
p4245
I112
sS'february'
p4246
I5396
sS"ya'll"
p4247
I4264
sS'experienced'
p4248
I3546
sS'parties'
p4249
I2240
sS'sexual'
p4250
I2109
sS'popping'
p4251
I5780
sS'matt'
p4252
I1798
sS'announces'
p4253
I5452
sS'rep'
p4254
I4186
sS'mate'
p4255
I2042
sS'red'
p4256
I642
sS'jessica'
p4257
I4619
sS'frank'
p4258
I2791
sS'receipts'
p4259
I5762
sS'backwards'
p4260
I4387
sS'yard'
p4261
I4046
sS'you\xe2\x80\x99ve'
p4262
I5493
sS'retail'
p4263
I5590
sS'south'
p4264
I1378
sS'finest'
p4265
I4665
sS'hey'
p4266
I257
sS'embarrassed'
p4267
I3383
sS'puppet'
p4268
I5431
sS'reached'
p4269
I4047
sS'ancient'
p4270
I5145
sS'sadly'
p4271
I1686
sS'monkey'
p4272
I5200
sS'hilary'
p4273
I2753
sS'messing'
p4274
I5729
sS'liquor'
p4275
I5878
sS'benghazi'
p4276
I3306
sS'gear'
p4277
I3417
sS'explanation'
p4278
I3927
sS'nobody'
p4279
I762
sS'ipad'
p4280
I4768
sS'loved'
p4281
I692
sS'slack'
p4282
I4314
sS'heh'
p4283
I3330
sS'loves'
p4284
I1106
sS'lover'
p4285
I5251
sS'visited'
p4286
I4368
sS'comfortable'
p4287
I3500
sS'have'
p4288
I27
sS'throat'
p4289
I4442
sS'apparently'
p4290
I783
sS'dallas'
p4291
I3863
sS'mic'
p4292
I2743
sS'mid'
p4293
I3977
sS'parks'
p4294
I4748
sS'mix'
p4295
I2049
sS'concerns'
p4296
I4388
sS'unless'
p4297
I932
sS"where's"
p4298
I1074
sS'sfo'
p4299
I5481
sS'eight'
p4300
I5306
sS'payment'
p4301
I5442
sS'request'
p4302
I2579
sS'disease'
p4303
I3911
sS'1,000'
p4304
I5922
sS'absurd'
p4305
I4744
sS'skinny'
p4306
I4668
sS'normally'
p4307
I4532
sS'text'
p4308
I844
sS'charles'
p4309
I4159
sS'traitor'
p4310
I4711
sS'portfolio'
p4311
I1808
sS'supporter'
p4312
I1572
sS'staff'
p4313
I2127
sS'inspiring'
p4314
I3048
sS'knowledge'
p4315
I2365
sS'controls'
p4316
I5645
sS'satan'
p4317
I5225
sS'regularly'
p4318
I5546
sS'pull'
p4319
I1129
sS'beat'
p4320
I624
sS'photography'
p4321
I5432
sS'bear'
p4322
I2487
sS'bean'
p4323
I4649
sS'perfection'
p4324
I4786
sS'timing'
p4325
I3567
sS'areas'
p4326
I3953
sS"putin's"
p4327
I4827
sS'teams'
p4328
I1247
sS"won't"
p4329
I359
sS'fixed'
p4330
I2072
sS'exists'
p4331
I3575
sS'\xf0\x9f\x98\xa9\xf0\x9f\x98\xa9'
p4332
I5072
sS'national'
p4333
I828
sS'reform'
p4334
I4997
sS'routine'
p4335
I5027
sS'progress'
p4336
I2246
sS'superior'
p4337
I5233
sS'deliver'
p4338
I3017
sS'legit'
p4339
I1282
sS'instant'
p4340
I4803
sS'joke'
p4341
I679
sS'taking'
p4342
I497
sS'equal'
p4343
I3088
sS'trips'
p4344
I4457
sS'moderators'
p4345
I5359
sS'busted'
p4346
I5009
sS'passing'
p4347
I2678
sS'retweets'
p4348
I3846
sS'glorious'
p4349
I3989
sS'otherwise'
p4350
I1547
sS'comment'
p4351
I1076
sS'relevant'
p4352
I2321
sS'laugh'
p4353
I1107
sS'citizenship'
p4354
I3699
sS'johnny'
p4355
I4053
sS'tremendous'
p4356
I4847
sS"it's"
p4357
I40
sS'permanent'
p4358
I5355
sS'dumbass'
p4359
I3459
sS'proposal'
p4360
I5847
sS'\xf0\x9f\x8d\xbb'
p4361
I5802
sS"it'd"
p4362
I3561
sS'define'
p4363
I5659
sS'aj'
p4364
I5237
sS'received'
p4365
I2141
sS'climate'
p4366
I2432
sS'finished'
p4367
I1347
sS'bull'
p4368
I3623
sS'general'
p4369
I1375
sS'volunteer'
p4370
I4842
sS'homer'
p4371
I5893
sS'homes'
p4372
I4035
sS'holiday'
p4373
I4001
sS'plain'
p4374
I4301
sS'appearance'
p4375
I3686
sS'value'
p4376
I1970
sS'frustrating'
p4377
I5038
sS'almost'
p4378
I454
sS'linkedin'
p4379
I5256
sS'helped'
p4380
I1575
sS'claimed'
p4381
I4456
sS'partner'
p4382
I2888
sS')'
p4383
I125
sS'administration'
p4384
I4302
sS'powell'
p4385
I5298
sS'injured'
p4386
I2193
sS'practice'
p4387
I1516
sS'reporting'
p4388
I1782
sS'ios'
p4389
I1332
sS'bullying'
p4390
I5115
sS'ion'
p4391
I5360
sS'sisters'
p4392
I3769
sS'giuliani'
p4393
I3675
sS'center'
p4394
I1630
sS'weapon'
p4395
I4030
sS'seth'
p4396
I5286
sS'thought'
p4397
I204
sS'wyd'
p4398
I5318
sS'oops'
p4399
I2444
sS'sets'
p4400
I4215
sS'position'
p4401
I1784
sS'muscle'
p4402
I5900
sS'latest'
p4403
I1233
sS'stores'
p4404
I2970
sS'executive'
p4405
I5099
sS'domestic'
p4406
I4700
sS'seats'
p4407
I2483
sS'tone'
p4408
I4147
sS'ads'
p4409
I2471
sS'lake'
p4410
I4071
sS'bench'
p4411
I3138
sS'add'
p4412
I781
sS'citizen'
p4413
I2948
sS'ohhh'
p4414
I4495
sS'smart'
p4415
I786
sS'tests'
p4416
I4642
sS'worlds'
p4417
I4370
sS'fyi'
p4418
I2580
sS'\xf0\x9f\x87\xba\xf0\x9f\x87\xb8'
p4419
I2116
sS'like'
p4420
I36
sS'success'
p4421
I1935
sS'journalism'
p4422
I2662
sS'admitted'
p4423
I3441
sS'journalist'
p4424
I3793
sS'chick'
p4425
I2881
sS'works'
p4426
I707
sS'soft'
p4427
I2623
sS'italian'
p4428
I3869
sS'alive'
p4429
I1264
sS'hair'
p4430
I525
sS'recommendation'
p4431
I5751
sS'proper'
p4432
I3186
sS'happens'
p4433
I733
sS'est'
p4434
I4120
sS'esp'
p4435
I3683
sS'assuming'
p4436
I2863
sS'screwed'
p4437
I3388
sS'noise'
p4438
I4086
sS'host'
p4439
I2087
sS'petty'
p4440
I3376
sS'although'
p4441
I2199
sS'worthy'
p4442
I4585
sS'&amp;'
p4443
I63
sS'panel'
p4444
I1894
sS'about'
p4445
I44
sS':-)'
p4446
I719
sS'actual'
p4447
I856
sS'justin'
p4448
I1864
sS'blessings'
p4449
I4570
sS'!!'
p4450
I79
sS'ways'
p4451
I1324
sS'conway'
p4452
I4348
sS'socks'
p4453
I2819
sS'playoff'
p4454
I3447
sS'doesnt'
p4455
I2236
sS'female'
p4456
I1779
sS'!?'
p4457
I1152
sS'wack'
p4458
I3716
sS'yorkers'
p4459
I4079
sS'biggest'
p4460
I1103
sS'buy'
p4461
I434
sS'chatting'
p4462
I4352
sS'bus'
p4463
I1513
sS'coke'
p4464
I2089
sS'but'
p4465
I30
sS'reminds'
p4466
I1675
sS'bum'
p4467
I3301
sS'editing'
p4468
I4571
sS'bug'
p4469
I2989
sS'bud'
p4470
I2040
sS'wise'
p4471
I2813
sS'glory'
p4472
I4437
sS'dangerous'
p4473
I1491
sS'j'
p4474
I1848
sS'flip'
p4475
I2655
sS'minutes'
p4476
I584
sS'supreme'
p4477
I2937
sS'replying'
p4478
I5823
sS'pin'
p4479
I4508
sS'deaths'
p4480
I4911
sS'circus'
p4481
I5824
sS'romney'
p4482
I4582
sS'pie'
p4483
I3086
sS'pig'
p4484
I3363
sS'shooting'
p4485
I1093
sS'pit'
p4486
I3661
sS'campus'
p4487
I2221
sS'48'
p4488
I5944
sS'dressed'
p4489
I3081
sS'45'
p4490
I2795
sS'claiming'
p4491
I3743
sS'detail'
p4492
I4481
sS'virtual'
p4493
I5449
sS'dresses'
p4494
I4740
sS'\xe2\x80\xa2'
p4495
I4978
sS'\xe2\x80\xa6'
p4496
I106
sS'christians'
p4497
I3501
sS'goin'
p4498
I3172
sS'\xe2\x80\x93'
p4499
I1671
sS'\xe2\x80\x94'
p4500
I790
sS'kardashian'
p4501
I4787
sS'\xe2\x80\x98'
p4502
I961
sS'\xe2\x80\x9d'
p4503
I473
sS'\xe2\x80\x9c'
p4504
I441
sS'4k'
p4505
I5611
sS'yell'
p4506
I5908
sS'baked'
p4507
I4897
sS'8th'
p4508
I2600
sS'limited'
p4509
I2680
sS'hats'
p4510
I3772
sS'sleep'
p4511
I583
sS'hating'
p4512
I3143
sS'hate'
p4513
I270
sS'poorly'
p4514
I4158
sS'feeding'
p4515
I5100
sS'vile'
p4516
I5274
sS'paris'
p4517
I3007
sS'tweet'
p4518
I238
sS'under'
p4519
I524
sS'pride'
p4520
I4275
sS'@'
p4521
I484
sS'risk'
p4522
I2538
sS'rise'
p4523
I3034
sS'every'
p4524
I201
sS'jack'
p4525
I1822
sS'monkeys'
p4526
I5566
sS'believed'
p4527
I4741
sS'school'
p4528
I361
sS'venue'
p4529
I5508
sS'.....'
p4530
I565
sS'enjoy'
p4531
I483
sS'leaders'
p4532
I2366
sS'consistent'
p4533
I4904
sS'direct'
p4534
I2529
sS'nail'
p4535
I4683
sS'street'
p4536
I818
sS'blue'
p4537
I899
sS'hide'
p4538
I2203
sS'christ'
p4539
I2674
sS'liberty'
p4540
I4913
sS'endorse'
p4541
I3085
sS'disney'
p4542
I2550
sS'pats'
p4543
I3465
sS'kicked'
p4544
I2609
sS'hundreds'
p4545
I3882
sS'studio'
p4546
I2496
sS'path'
p4547
I3329
sS'property'
p4548
I2904
sS'vikings'
p4549
I5331
sS'forum'
p4550
I5369
sS'leaves'
p4551
I2584
sS'changed'
p4552
I1085
sS'changes'
p4553
I1947
sS'feelings'
p4554
I1653
sS'patience'
p4555
I4337
sS'riots'
p4556
I5365
sS'would'
p4557
I80
sS'hospital'
p4558
I3068
sS'tail'
p4559
I5421
sS'chargers'
p4560
I4733
sS'asses'
p4561
I4675
sS'preview'
p4562
I3162
sS'breathe'
p4563
I3318
sS'phony'
p4564
I5774
sS'phone'
p4565
I425
sS'excellent'
p4566
I1119
sS'must'
p4567
I334
sS'shoot'
p4568
I1034
sS'mf'
p4569
I5047
sS'join'
p4570
I567
sS'mo'
p4571
I3256
sS'mi'
p4572
I5382
sS'mt'
p4573
I4315
sS'ms'
p4574
I3568
sS'mr'
p4575
I2041
sS'my'
p4576
I20
sS'shook'
p4577
I2666
sS'estate'
p4578
I4496
sS'keep'
p4579
I229
sS'guarantee'
p4580
I4650
sS'ceremony'
p4581
I5522
sS'!!!'
p4582
I123
sS'sitting'
p4583
I1071
sS'writers'
p4584
I3831
sS'toxic'
p4585
I5712
sS'gate'
p4586
I3959
sS'charging'
p4587
I4230
sS'badly'
p4588
I2912
sS'elizabeth'
p4589
I2859
sS'mess'
p4590
I1268
sS'demanding'
p4591
I5647
sS'jumping'
p4592
I3945
sS'danny'
p4593
I4254
sS'upside'
p4594
I4417
sS'ultimate'
p4595
I3506
sS'enter'
p4596
I2773
sS'harlem'
p4597
I5441
sS'over'
p4598
I139
sS'london'
p4599
I1898
sS'ima'
p4600
I1162
sS'40%'
p4601
I5263
sS'hypocrisy'
p4602
I5684
sS'expectations'
p4603
I3067
sS'imo'
p4604
I1765
sS'writing'
p4605
I1072
sS'destroyed'
p4606
I2808
sS'edits'
p4607
I5028
sS'fade'
p4608
I4360
sS'400'
p4609
I3340
sS'iowa'
p4610
I5264
sS'bouta'
p4611
I5257
sS'alex'
p4612
I2303
sS'potatoes'
p4613
I4852
sS'chuck'
p4614
I3442
sS'detroit'
p4615
I4354
sS'explode'
p4616
I5361
sS'victory'
p4617
I2949
sS'each'
p4618
I617
sS'signing'
p4619
I3227
sS'wentz'
p4620
I3412
sS'celebrating'
p4621
I2482
sS'saturday'
p4622
I752
sS'gon'
p4623
I2390
sS'driving'
p4624
I1253
sS'god'
p4625
I280
sS'washed'
p4626
I4207
sS'laid'
p4627
I5781
sS'got'
p4628
I88
sS'gov'
p4629
I2474
sS'gop'
p4630
I1131
sS'arizona'
p4631
I4248
sS'rail'
p4632
I5909
sS'free'
p4633
I345
sS'rain'
p4634
I1582
sS'wanted'
p4635
I557
sS'days'
p4636
I346
sS'priorities'
p4637
I5450
sS'outfits'
p4638
I4914
sS'filter'
p4639
I3146
sS'heck'
p4640
I2463
sS'\xf0\x9f\x99\x84\xf0\x9f\x99\x84'
p4641
I5209
sS'onto'
p4642
I2788
sS'already'
p4643
I215
sS'primary'
p4644
I2889
sS'hearing'
p4645
I1334
sS'rant'
p4646
I4369
sS'sober'
p4647
I5170
sS'\xf0\x9f\x91\x8f\xf0\x9f\x8f\xbb'
p4648
I5860
sS'toy'
p4649
I5091
sS'\xf0\x9f\x91\x8f\xf0\x9f\x8f\xbc'
p4650
I5325
sS'sarcasm'
p4651
I3895
sS'top'
p4652
I461
sS'heights'
p4653
I5265
sS'\xf0\x9f\x91\x80'
p4654
I1063
sS'ton'
p4655
I3039
sS'too'
p4656
I65
sS'tom'
p4657
I1685
sS'\xf0\x9f\x91\x89'
p4658
I5408
sS'\xf0\x9f\x91\x8c'
p4659
I2870
sS'\xf0\x9f\x91\x8d'
p4660
I1625
sS'\xf0\x9f\x91\x8f'
p4661
I3293
sS'urban'
p4662
I3790
sS'murder'
p4663
I1579
sS'\xf0\x9f\x98\x98\xf0\x9f\x98\x98'
p4664
I4240
sS'tool'
p4665
I2475
sS'serve'
p4666
I2628
sS'took'
p4667
I467
sS'wrapped'
p4668
I5918
sS'western'
p4669
I4004
sS'nominate'
p4670
I3702
sS'immigrants'
p4671
I2553
sS'classes'
p4672
I2247
sS'h.w.'
p4673
I5782
sS'10th'
p4674
I5821
sS'bridge'
p4675
I2158
sS'rad'
p4676
I4476
sS'humble'
p4677
I5917
sS'ran'
p4678
I1509
sS'talking'
p4679
I306
sS'rat'
p4680
I4063
sS'rap'
p4681
I2723
sS'ohhhh'
p4682
I4636
sS'ray'
p4683
I3794
sS'-'
p4684
I99
sS'snow'
p4685
I3617
sS'brandon'
p4686
I4026
sS'contact'
p4687
I1546
sS'laughed'
p4688
I2902
sS'rides'
p4689
I6001
sS'though'
p4690
I216
sS'plenty'
p4691
I1749
sS'glow'
p4692
I5743
sS'treats'
p4693
I4666
sS'metal'
p4694
I3713
sS'entertaining'
p4695
I3748
sS'bait'
p4696
I4998
sS'inspire'
p4697
I5201
sS'queen'
p4698
I1254
sS'pops'
p4699
I4175
sS'colors'
p4700
I2469
sS'radio'
p4701
I1361
sS'solutions'
p4702
I4646
sS'earth'
p4703
I1593
sS'situations'
p4704
I5923
sS'delays'
p4705
I2776
sS'minnesota'
p4706
I3562
sS'tries'
p4707
I3279
sS'photo'
p4708
I529
sS'announce'
p4709
I2844
sS'chipotle'
p4710
I3780
sS'oct'
p4711
I1889
sS'geez'
p4712
I5834
sS'sunglasses'
p4713
I5730
sS'watch'
p4714
I180
sS'amazon'
p4715
I2104
sS'despite'
p4716
I2351
sS'report'
p4717
I989
sS'haiti'
p4718
I5698
sS'countries'
p4719
I1856
sS'twice'
p4720
I1360
sS'shots'
p4721
I1772
sS'habit'
p4722
I5694
sS'nut'
p4723
I4279
sS'resist'
p4724
I5987
sS'corrupt'
p4725
I1319
sS'disturbing'
p4726
I4199
sS'jerseys'
p4727
I4211
sS'capacity'
p4728
I4923
sS'finger'
p4729
I3351
sS'hopefully'
p4730
I814
sS'approach'
p4731
I3434
sS'adding'
p4732
I2943
sS'weak'
p4733
I1431
sS'however'
p4734
I2073
sS'boss'
p4735
I1742
sS'wear'
p4736
I709
sS'news'
p4737
I367
sS'improve'
p4738
I4271
sS'faced'
p4739
I5777
sS'protect'
p4740
I1805
sS'fault'
p4741
I1552
sS'jelly'
p4742
I5579
sS'players'
p4743
I1096
sS'games'
p4744
I560
sS'faces'
p4745
I2454
sS'birtherism'
p4746
I2436
sS'trust'
p4747
I705
sS'hitler'
p4748
I2461
sS'conference'
p4749
I1537
sS'bathroom'
p4750
I2183
sS'beef'
p4751
I2719
sS'binge'
p4752
I4882
sS'been'
p4753
I104
sS'quickly'
p4754
I2157
sS'confident'
p4755
I3645
sS'beer'
p4756
I1066
sS'spread'
p4757
I2024
sS'expected'
p4758
I2037
sS'drugs'
p4759
I1951
sS'republicans'
p4760
I1913
sS'search'
p4761
I1810
sS'catch'
p4762
I675
sS'fallon'
p4763
I3392
sS'n'
p4764
I619
sS'dept'
p4765
I5276
sS'teachers'
p4766
I3356
sS'stopping'
p4767
I3458
sS'cracked'
p4768
I5763
sS'experts'
p4769
I3103
sS'experience'
p4770
I716
sS'nike'
p4771
I4443
sS'suggest'
p4772
I2671
sS'forehead'
p4773
I5870
sS'complex'
p4774
I3517
sS'shawty'
p4775
I4604
sS'several'
p4776
I1733
sS'leftist'
p4777
I5523
sS'pick'
p4778
I683
sS'microphone'
p4779
I4730
sS'deflect'
p4780
I5695
sS'characters'
p4781
I1495
sS'cycle'
p4782
I3042
sS'shortly'
p4783
I4856
sS'charlie'
p4784
I3236
sS'ocean'
p4785
I3225
sS'greatest'
p4786
I1229
sS'mother'
p4787
I1386
sS'hearts'
p4788
I3484
sS'dads'
p4789
I5633
sS'laptop'
p4790
I3427
sS'\xf0\x9f\x8c\xb9'
p4791
I5482
sS'\xf0\x9f\x8c\xb8'
p4792
I4712
sS'eli'
p4793
I3618
sS'adidas'
p4794
I5069
sS'scorpio'
p4795
I5210
sS'cherry'
p4796
I5205
sS'rumor'
p4797
I5343
sS'humanity'
p4798
I2560
sS'gave'
p4799
I660
sS'bands'
p4800
I4167
sS'breaks'
p4801
I1858
sS'\xf0\x9f\x98\xad\xf0\x9f\x98\xad\xf0\x9f\x98\xad'
p4802
I1479
sS'cultural'
p4803
I4344
sS'judge'
p4804
I1605
sS'burns'
p4805
I4999
sS'vetting'
p4806
I5409
sS'apart'
p4807
I2391
sS'gifs'
p4808
I3565
sS'brutality'
p4809
I5871
sS'gift'
p4810
I1875
sS'hunt'
p4811
I5945
sS'orlando'
p4812
I4828
sS'50'
p4813
I1379
sS'specific'
p4814
I2066
sS'officer'
p4815
I2173
sS'hung'
p4816
I4815
sS'matchup'
p4817
I5668
sS'dishonest'
p4818
I4534
sS'jennifer'
p4819
I4471
sS'donald'
p4820
I290
sS'election'
p4821
I620
sS'escape'
p4822
I3969
sS'theyre'
p4823
I3874
sS'finna'
p4824
I4148
sS'\xf0\x9f\x99\x84'
p4825
I558
sS'ear'
p4826
I3533
sS'ice'
p4827
I949
sS'everything'
p4828
I313
sS'cnn'
p4829
I1091
sS'christmas'
p4830
I1637
sS'overrated'
p4831
I3844
sS'core'
p4832
I3129
sS'deleted'
p4833
I1832
sS'corn'
p4834
I3184
sS'discount'
p4835
I3776
sS'plug'
p4836
I3470
sS'attacks'
p4837
I1581
sS'choke'
p4838
I5332
sS'dinner'
p4839
I1011
sS'misleading'
p4840
I5341
sS'plus'
p4841
I741
sS'efforts'
p4842
I4728
sS'twitch'
p4843
I4594
sS'curry'
p4844
I4238
sS'facetime'
p4845
I4948
sS'duke'
p4846
I4536
sS'aha'
p4847
I5524
sS'presence'
p4848
I4345
sS'civil'
p4849
I2452
sS'ahh'
p4850
I2642
sS'bath'
p4851
I3718
sS'donated'
p4852
I5634
sS'deadass'
p4853
I1659
sS'existed'
p4854
I4430
sS'class'
p4855
I447
sS'gig'
p4856
I4854
sS'gif'
p4857
I1473
sS'anderson'
p4858
I5125
sS'fought'
p4859
I5266
sS'questionable'
p4860
I5537
sS'head'
p4861
I474
sS'medium'
p4862
I4805
sS'gorgeous'
p4863
I1153
sS'heat'
p4864
I1842
sS'uncle'
p4865
I2663
sS'solar'
p4866
I5362
sS'removed'
p4867
I3490
sS'kenzo'
p4868
I3000
sS'versions'
p4869
I5961
sS'ruined'
p4870
I2744
sS'adore'
p4871
I5532
sS'90%'
p4872
I4367
sS'sometime'
p4873
I2355
sS'annoying'
p4874
I1249
sS'trip'
p4875
I891
sS'looked'
p4876
I823
sS'nj'
p4877
I1717
sS'tix'
p4878
I3181
sS'no'
p4879
I49
sS'na'
p4880
I1971
sS'nc'
p4881
I3821
sS'when'
p4882
I60
sS'til'
p4883
I1939
sS'ny'
p4884
I585
sS'setting'
p4885
I2823
sS'papers'
p4886
I3947
sS'tie'
p4887
I2381
sS'picture'
p4888
I561
sS'football'
p4889
I727
sS'younger'
p4890
I3008
sS'longer'
p4891
I945
sS'serious'
p4892
I708
sS'neighbors'
p4893
I3612
sS'coach'
p4894
I1392
sS'ron'
p4895
I4576
sS'impression'
p4896
I4937
sS'rob'
p4897
I2982
sS'focus'
p4898
I1680
sS'leads'
p4899
I2530
sS'comments'
p4900
I1368
sS'row'
p4901
I1462
sS'environment'
p4902
I4418
sS'charge'
p4903
I1672
sS'promoting'
p4904
I4669
sS'prop'
p4905
I5744
sS'advantage'
p4906
I3270
sS'cook'
p4907
I2081
sS'cool'
p4908
I293
sS'impressive'
p4909
I2478
sS'level'
p4910
I886
sS'posts'
p4911
I3123
sS'brother'
p4912
I655
sS'standards'
p4913
I3265
sS'quick'
p4914
I993
sS'yall'
p4915
I1231
sS'pork'
p4916
I5135
sS'says'
p4917
I262
sS'porn'
p4918
I2285
sS'trend'
p4919
I2585
sS'\xf0\x9f\x93\xb7'
p4920
I5533
sS'cyber'
p4921
I2059
sS'colin'
p4922
I2494
sS'port'
p4923
I4938
sS'drinks'
p4924
I2419
sS'stressful'
p4925
I4676
sS'constitution'
p4926
I2630
sS'debate'
p4927
I213
sS'goes'
p4928
I582
sS'reply'
p4929
I1559
sS'angelina'
p4930
I3802
sS'water'
p4931
I732
sS'witch'
p4932
I2971
sS'groups'
p4933
I2751
sS'confused'
p4934
I1032
sS'['
p4935
I1222
sS'healthy'
p4936
I1726
sS'guilty'
p4937
I2272
sS'proud'
p4938
I604
sS'weird'
p4939
I573
sS'shootings'
p4940
I4915
sS'problematic'
p4941
I4265
sS'shark'
p4942
I4751
sS'1st'
p4943
I843
sS'touchdown'
p4944
I4857
sS'peep'
p4945
I3429
sS'emmys'
p4946
I5048
sS'russell'
p4947
I5319
sS'sports'
p4948
I1294
sS'msm'
p4949
I2783
sS'andy'
p4950
I3226
sS'iphone'
p4951
I720
sS'prez'
p4952
I4969
sS'msg'
p4953
I4559
sS'prep'
p4954
I3507
sS'today'
p4955
I127
sS'chapter'
p4956
I4771
sS'kerry'
p4957
I4720
sS'riot'
p4958
I3393
sS'sessions'
p4959
I5665
sS'chocolate'
p4960
I1541
sS'beers'
p4961
I4298
sS'cases'
p4962
I3508
sS'autumn'
p4963
I3903
sS'thousands'
p4964
I2675
sS'ms.'
p4965
I4832
sS'laughter'
p4966
I5879
sS'streak'
p4967
I4329
sS'trump'
p4968
I66
sS'figure'
p4969
I1090
sS'unarmed'
p4970
I4106
sS'dropped'
p4971
I1485
sS'counting'
p4972
I2901
sS'bigot'
p4973
I3859
sS'requirements'
p4974
I5685
sS'cuba'
p4975
I5011
sS'1'
p4976
I341
sS'fourth'
p4977
I5753
sS'endorsement'
p4978
I2766
sS'speaks'
p4979
I2260
sS'$100'
p4980
I3719
sS'unbelievable'
p4981
I2645
sS'huge'
p4982
I768
sS'fascist'
p4983
I5946
sS'crashed'
p4984
I5372
sS'heartbreaking'
p4985
I5993
sS'birthday'
p4986
I205
sS'tbh'
p4987
I551
sS'sept'
p4988
I3015
sS'exclusive'
p4989
I2301
sS'comfort'
p4990
I4550
sS'\xe2\x80\xa6.'
p4991
I4903
sS'mainly'
p4992
I4821
sS'\xf0\x9f\x98\x82\xf0\x9f\x98\xad'
p4993
I4121
sS'blocked'
p4994
I1036
sS"he's"
p4995
I145
sS"he'd"
p4996
I2079
sS'platform'
p4997
I1823
sS'offers'
p4998
I4225
sS'\xf0\x9f\x98\x82\xf0\x9f\x98\x82'
p4999
I490
sS'happened'
p5000
I433
sS'lonely'
p5001
I4082
sS'moms'
p5002
I2980
sS'conversations'
p5003
I4868
sS'qualified'
p5004
I3964
sS'hamilton'
p5005
I5400
sS'ppl'
p5006
I579
sS'term'
p5007
I1658
sS'name'
p5008
I319
sS'clutch'
p5009
I4918
sS'debating'
p5010
I3266
sS'catching'
p5011
I2684
sS'obsession'
p5012
I5848
sS'intended'
p5013
I4970
sS'hacker'
p5014
I5425
sS"america's"
p5015
I3098
sS'profit'
p5016
I4135
sS'factory'
p5017
I5025
sS"shouldn't"
p5018
I911
sS'hacked'
p5019
I3244
sS'theory'
p5020
I2019
sS'boobs'
p5021
I4898
sS'yup'
p5022
I776
sS'100%'
p5023
I1013
sS'motion'
p5024
I5094
sS'turn'
p5025
I657
sS'yum'
p5026
I5122
sS'swing'
p5027
I2606
sS'childhood'
p5028
I3764
sS'1000'
p5029
I5202
sS'pokemon'
p5030
I3847
sS'george'
p5031
I1603
sS'engineer'
p5032
I5211
sS'given'
p5033
I1038
sS'necessarily'
p5034
I4346
sS'district'
p5035
I4149
sS'stuck'
p5036
I1512
sS'europe'
p5037
I2385
sS'plastic'
p5038
I4375
sS'returns'
p5039
I1710
sS'terrifying'
p5040
I3471
sS'convention'
p5041
I5244
sS'legally'
p5042
I5110
sS'white'
p5043
I274
sS'gives'
p5044
I1188
sS'hug'
p5045
I2493
sS'releases'
p5046
I3671
sS'season'
p5047
I320
sS'hun'
p5048
I5116
sS"men's"
p5049
I5924
sS'huh'
p5050
I1001
sS'cops'
p5051
I1207
sS'copy'
p5052
I1732
sS'population'
p5053
I3586
sS'wide'
p5054
I3322
sS'lmao'
p5055
I162
sS'require'
p5056
I4066
sS'r'
p5057
I517
sS'aesthetic'
p5058
I5021
sS'cards'
p5059
I1999
sS'poisoning'
p5060
I5910
sS'outcome'
p5061
I4083
sS'and'
p5062
I11
sS'pro'
p5063
I1622
sS'rent'
p5064
I2834
sS'sells'
p5065
I5350
sS'\xf0\x9f\x8e\xb6'
p5066
I3990
sS'any'
p5067
I167
sS'marathon'
p5068
I5253
sS'confirmation'
p5069
I4713
sS'\xf0\x9f\x8e\x89'
p5070
I2323
sS'ideas'
p5071
I1493
sS'ideal'
p5072
I4280
sS'primaries'
p5073
I5151
sS'blunt'
p5074
I4876
sS'sure'
p5075
I171
sS'multiple'
p5076
I1880
sS'falls'
p5077
I3696
sS'donation'
p5078
I5635
sS'freshman'
p5079
I4615
sS'cleared'
p5080
I5650
sS'icon'
p5081
I3399
sS'considered'
p5082
I2130
sS'later'
p5083
I659
sS'hungry'
p5084
I2167
sS'hoboken'
p5085
I4963
sS'hear'
p5086
I333
sS'senior'
p5087
I2326
sS'vetted'
p5088
I5384
sS'cheat'
p5089
I3648
sS'cheap'
p5090
I1907
sS'hack'
p5091
I3274
sS'favor'
p5092
I2424
sS'state'
p5093
I577
sS'crime'
p5094
I1307
sS'wood'
p5095
I4991
sS'believing'
p5096
I5754
sS'jazz'
p5097
I5925
sS'begging'
p5098
I4697
sS'trade'
p5099
I1275
sS'freaking'
p5100
I1806
sS'reveal'
p5101
I3684
sS'regarding'
p5102
I4168
sS'naked'
p5103
I3152
sS":')"
p5104
I4955
sS'clowns'
p5105
I3727
sS'predicted'
p5106
I5039
sS'bought'
p5107
I778
sS'discussing'
p5108
I2913
sS"y'all"
p5109
I387
sS'ignored'
p5110
I3437
sS'replies'
p5111
I4113
sS'college'
p5112
I672
sS'parking'
p5113
I1838
sS'apologies'
p5114
I3819
sS'ability'
p5115
I3431
sS'fails'
p5116
I4153
sS'farmers'
p5117
I5651
sS'federal'
p5118
I1957
sS'review'
p5119
I1377
sS'opening'
p5120
I1338
sS'weapons'
p5121
I3394
sS'outside'
p5122
I887
sS'25'
p5123
I1985
sS'guitar'
p5124
I4241
sS'cities'
p5125
I1872
sS'come'
p5126
I151
sS'reaction'
p5127
I2238
sS'quiet'
p5128
I2689
sS'contract'
p5129
I2940
sS'senator'
p5130
I3752
sS'duty'
p5131
I3853
sS'pakistan'
p5132
I3144
sS'color'
p5133
I919
sS'pot'
p5134
I3180
sS'period'
p5135
I1574
sS'pop'
p5136
I1602
sS'60'
p5137
I3511
sS'approval'
p5138
I4801
sS'bizarre'
p5139
I4330
sS'poll'
p5140
I703
sS'poc'
p5141
I5475
sS'nicole'
p5142
I2479
sS'turkey'
p5143
I3984
sS'howard'
p5144
I2704
sS'50%'
p5145
I3820
sS'peaceful'
p5146
I3250
sS'featuring'
p5147
I4605
sS'hardly'
p5148
I3917
sS'500'
p5149
I3655
sS'direction'
p5150
I3052
sS'robbed'
p5151
I5881
sS'blessing'
p5152
I4505
sS'andrew'
p5153
I3720
sS'6s'
p5154
I5254
sS'minister'
p5155
I4431
sS'careful'
p5156
I2369
sS'irrelevant'
p5157
I3242
sS'spirit'
p5158
I2495
sS'pilot'
p5159
I5001
sS'case'
p5160
I534
sS'myself'
p5161
I443
sS'cash'
p5162
I1670
sS'arnold'
p5163
I4485
sS'cast'
p5164
I1601
sS'good'
p5165
I57
sS'ironic'
p5166
I4684
sS'helmet'
p5167
I5686
sS'author'
p5168
I3368
sS'$20'
p5169
I3558
sS'granted'
p5170
I4128
sS'bowl'
p5171
I1900
sS'check'
p5172
I260
sS'buys'
p5173
I5462
sS'reminder'
p5174
I2174
sS'retweeting'
p5175
I4297
sS'events'
p5176
I1925
sS'week'
p5177
I217
sS'screenshot'
p5178
I3522
sS'driver'
p5179
I2110
sS'drives'
p5180
I3979
sS'weed'
p5181
I2540
sS'producers'
p5182
I3650
sS'changing'
p5183
I1972
sS'cartoon'
p5184
I4057
sS'ranch'
p5185
I5043
sS'magical'
p5186
I3672
sS'without'
p5187
I381
sS'relief'
p5188
I5002
sS'model'
p5189
I1507
sS'rahami'
p5190
I3483
sS'bodies'
p5191
I4788
sS'justify'
p5192
I5040
sS'nd'
p5193
I5458
sS'unconstitutional'
p5194
I4772
sS'actions'
p5195
I3109
sS'violent'
p5196
I3040
sS'kill'
p5197
I700
sS'captured'
p5198
I5911
sS'blow'
p5199
I1655
sS'announcement'
p5200
I3119
sS'feminist'
p5201
I5926
sS"we've"
p5202
I1108
sS"everyone's"
p5203
I2504
sS'seems'
p5204
I493
sS'except'
p5205
I826
sS'it\xe2\x80\x99s'
p5206
I662
sS'blog'
p5207
I1475
sS'lets'
p5208
I905
sS'ross'
p5209
I5459
sS'scheduled'
p5210
I5245
sS'kills'
p5211
I3104
sS'virginia'
p5212
I3709
sS'accepted'
p5213
I3457
sS'patrick'
p5214
I5588
sS'donations'
p5215
I4829
sS'tower'
p5216
I3044
sS'joking'
p5217
I3057
sS'competition'
p5218
I3231
sS'respect'
p5219
I855
sS'provided'
p5220
I4900
sS'mood'
p5221
I2119
sS'stops'
p5222
I3291
sS'moon'
p5223
I1853
sS'provides'
p5224
I5561
sS'lmfao'
p5225
I611
sS'nails'
p5226
I3502
sS'terrified'
p5227
I4208
sS'_'
p5228
I0
sS'on'
p5229
I19
sS'jeez'
p5230
I4843
sS'ol'
p5231
I3523
sS'ok'
p5232
I252
sS'oh'
p5233
I128
sS'og'
p5234
I5049
sS'of'
p5235
I13
sS'discussed'
p5236
I5337
sS'stand'
p5237
I745
sS'yeezy'
p5238
I5333
sS'os'
p5239
I5246
sS'or'
p5240
I67
sS'op'
p5241
I5598
sS'ladies'
p5242
I1544
sS'communication'
p5243
I4540
sS'rising'
p5244
I4266
sS'gary'
p5245
I1545
sS'there'
p5246
I69
sS'racism'
p5247
I1155
sS'racist'
p5248
I505
sS'valley'
p5249
I2559
sS'fish'
p5250
I1966
sS'treat'
p5251
I2008
sS'lmaooo'
p5252
I1461
sS'cabinet'
p5253
I5660
sS'jus'
p5254
I3518
sS'promote'
p5255
I3619
sS'faster'
p5256
I2986
sS'grass'
p5257
I5714
sS'strongly'
p5258
I4773
sS'toilet'
p5259
I3237
sS'taylor'
p5260
I3149
sS'taste'
p5261
I1576
sS'cbs'
p5262
I3726
sS'intro'
p5263
I3941
sS'tasty'
p5264
I4606
sS'politics'
p5265
I1291
sS'incorrect'
p5266
I4407
sS'heather'
p5267
I5849
sS'idiot'
p5268
I1014
sS'deserve'
p5269
I1059
sS'insurance'
p5270
I2933
sS'5'
p5271
I376
sS'trash'
p5272
I820
sS'immunity'
p5273
I3400
sS'championship'
p5274
I3504
sS'separate'
p5275
I3245
sS'spoilers'
p5276
I5547
sS'symbol'
p5277
I5813
sS'finale'
p5278
I3737
sS'includes'
p5279
I4667
sS'included'
p5280
I3213
sS'finals'
p5281
I4858
sS'missed'
p5282
I593
sS'booked'
p5283
I4848
sS'ftw'
p5284
I5807
sS'calls'
p5285
I990
sS'wife'
p5286
I937
sS'invest'
p5287
I4448
sS'odds'
p5288
I3443
sS'wifi'
p5289
I2665
sS'websites'
p5290
I5715
sS'all'
p5291
I41
sS'diss'
p5292
I4452
sS'chinese'
p5293
I2207
sS'lack'
p5294
I1391
sS'follow'
p5295
I406
sS'alt'
p5296
I4587
sS'decisions'
p5297
I2602
sS'hmmm'
p5298
I2407
sS'apartment'
p5299
I1892
sS'wassup'
p5300
I5165
sS'opportunities'
p5301
I4572
sS'aaron'
p5302
I4088
sS'program'
p5303
I1677
sS'presentation'
p5304
I3302
sS'woman'
p5305
I556
sS'worse'
p5306
I623
sS'song'
p5307
I436
sS'far'
p5308
I389
sS'fav'
p5309
I1397
sS'imessage'
p5310
I5351
sS'ouch'
p5311
I4519
sS'worst'
p5312
I554
sS'fam'
p5313
I882
sS'awful'
p5314
I1098
sS'sony'
p5315
I5502
sS'ticket'
p5316
I1148
sS'treating'
p5317
I4685
sS'list'
p5318
I564
sS'vibes'
p5319
I3083
sS'liars'
p5320
I4761
sS'rats'
p5321
I5599
sS'ten'
p5322
I2891
sS'tea'
p5323
I1453
sS'ted'
p5324
I1876
sS'tee'
p5325
I5648
sS'rate'
p5326
I2198
sS'design'
p5327
I1134
sS'nbc'
p5328
I3350
sS'nba'
p5329
I2527
sS'sue'
p5330
I3253
sS'sub'
p5331
I4859
sS'deeply'
p5332
I3848
sS'sum'
p5333
I5299
sS'anniversary'
p5334
I2894
sS'crush'
p5335
I2755
sS'version'
p5336
I972
sS'racing'
p5337
I4905
sS'guns'
p5338
I1564
sS'toes'
p5339
I5825
sS'christian'
p5340
I1854
sS'shoulda'
p5341
I3438
sS'allows'
p5342
I4255
sS'options'
p5343
I2177
sS'thankfully'
p5344
I4016
sS'suddenly'
p5345
I3559
sS'texts'
p5346
I3257
sS'semester'
p5347
I4562
sS'emoji'
p5348
I2054
sS'donuts'
p5349
I4444
sS'shits'
p5350
I2621
sS'markets'
p5351
I4920
sS'minor'
p5352
I4462
sS'tryna'
p5353
I1193
sS'israel'
p5354
I1768
sS'knows'
p5355
I592
sS'definition'
p5356
I2146
sS'flag'
p5357
I2064
sS'basically'
p5358
I931
sS'known'
p5359
I1238
sS'glad'
p5360
I422
sS'debates'
p5361
I1464
sS'v'
p5362
I1225
sS'embarrassing'
p5363
I2392
sS'division'
p5364
I3001
sS'libertarian'
p5365
I5636
sS'court'
p5366
I1445
sS'goal'
p5367
I1449
sS'rather'
p5368
I785
sS'breaking'
p5369
I952
sS'explains'
p5370
I2509
sS'goat'
p5371
I2796
sS'sandwich'
p5372
I2445
sS'okay'
p5373
I396
sS'lighting'
p5374
I5334
sS'adventure'
p5375
I3278
sS'short'
p5376
I1033
sS'shady'
p5377
I5385
sS'departure'
p5378
I3557
sS'shade'
p5379
I2951
sS'???'
p5380
I358
sS"don't"
p5381
I53
sS'september'
p5382
I1458
sS'developed'
p5383
I4453
sS'brotha'
p5384
I3595
sS'mission'
p5385
I2556
sS'disabled'
p5386
I5258
sS'isnt'
p5387
I2804
sS'bigoted'
p5388
I5326
sS'avenue'
p5389
I5483
sS'islam'
p5390
I1042
sS'style'
p5391
I1286
sS'pray'
p5392
I1895
sS'resort'
p5393
I5567
sS'parts'
p5394
I2519
sS'stephen'
p5395
I5277
sS'bout'
p5396
I909
sS'soccer'
p5397
I2586
sS'might'
p5398
I285
sS'somebody'
p5399
I1406
sS'sucking'
p5400
I5177
sS'hunter'
p5401
I5484
sS'woulda'
p5402
I4563
sS'communities'
p5403
I3041
sS'bigger'
p5404
I1494
sS'friendship'
p5405
I3360
sS'weight'
p5406
I1790
sS'generation'
p5407
I2878
sS'peeps'
p5408
I3804
sS'hawaii'
p5409
I4986
sS'expect'
p5410
I1164
sS'cups'
p5411
I4702
sS'prolly'
p5412
I3018
sS'alcohol'
p5413
I2423
sS'wondered'
p5414
I5947
sS'health'
p5415
I1029
sS'hill'
p5416
I2117
sS'friday'
p5417
I598
sS'forgive'
p5418
I4651
sS'cookie'
p5419
I3218
sS'teach'
p5420
I1734
sS'guest'
p5421
I2338
sS'thrown'
p5422
I4032
sS'thread'
p5423
I1171
sS"year's"
p5424
I3832
sS'threat'
p5425
I2218
sS'fallen'
p5426
I5410
sS'throws'
p5427
I3970
sS'feed'
p5428
I1418
sS'feel'
p5429
I214
sS'radical'
p5430
I3714
sS'fancy'
p5431
I3087
sS'feet'
p5432
I2026
sS'brave'
p5433
I3744
sS'blank'
p5434
I5882
sS'passes'
p5435
I3544
sS'story'
p5436
I394
sS'"'
p5437
I21
sS'script'
p5438
I4779
sS'leading'
p5439
I2789
sS'interviews'
p5440
I3550
sS'comfy'
p5441
I5927
sS'lobby'
p5442
I5101
sS'storm'
p5443
I3538
sS'store'
p5444
I829
sS'headache'
p5445
I5126
sS'option'
p5446
I1623
sS'$$'
p5447
I4017
sS'hotel'
p5448
I1401
sS'luckily'
p5449
I4355
sS'$5'
p5450
I3849
sS'convinced'
p5451
I3377
sS'$1'
p5452
I5933
sS'king'
p5453
I1003
sS'kind'
p5454
I449
sS'double'
p5455
I1161
sS'illegals'
p5456
I5835
sS'dang'
p5457
I2512
sS'motivation'
p5458
I4048
sS'outstanding'
p5459
I4701
sS'suspicious'
p5460
I5285
sS'alike'
p5461
I5880
sS'wilson'
p5462
I4338
sS'nights'
p5463
I2058
sS'\xf0\x9f\x98\x9d'
p5464
I3190
sS'finding'
p5465
I1964
sS'added'
p5466
I1847
sS'electric'
p5467
I5136
sS'reach'
p5468
I2070
sS'\xf0\x9f\x98\x96'
p5469
I5808
sS'react'
p5470
I3889
sS'70'
p5471
I4118
sS'nothing'
p5472
I248
sS'seasons'
p5473
I3193
sS'stands'
p5474
I2953
sS'won\xe2\x80\x99t'
p5475
I4011
sS'appreciation'
p5476
I5022
sS'windows'
p5477
I2821
sS'lying'
p5478
I756
sS'didn\xe2\x80\x99t'
p5479
I2403
sS'stfu'
p5480
I3292
sS'rts'
p5481
I5378
sS'\xf0\x9f\x98\x82'
p5482
I165
sS'rocket'
p5483
I4677
sS'grace'
p5484
I3930
sS'penalty'
p5485
I4745
sS'obama'
p5486
I363
sS'hip'
p5487
I3204
sS'his'
p5488
I78
sS'hit'
p5489
I418
sS'clinton\xe2\x80\x99s'
p5490
I4316
sS'alicia'
p5491
I3101
sS'longest'
p5492
I5542
sS'emails'
p5493
I1163
sS'investigate'
p5494
I4249
sS'activity'
p5495
I4424
sS'wrote'
p5496
I1468
sS'bars'
p5497
I3205
sS'art'
p5498
I974
sS'bart'
p5499
I3999
sS'dump'
p5500
I4624
sS'intelligence'
p5501
I3408
sS'defense'
p5502
I1022
sS'dumb'
p5503
I710
sS'are'
p5504
I25
sS'arm'
p5505
I2344
sS'recording'
p5506
I3117
sS'threats'
p5507
I3750
sS'nailed'
p5508
I4500
sS'various'
p5509
I4595
sS'corruption'
p5510
I2053
sS'solo'
p5511
I4638
sS'korea'
p5512
I5883
sS'recently'
p5513
I1833
sS'creating'
p5514
I3187
sS'sold'
p5515
I1212
sS'attention'
p5516
I992
sS'outfit'
p5517
I2564
sS'franchise'
p5518
I4498
sS'c'
p5519
I1251
sS'license'
p5520
I4541
sS'stop-and-frisk'
p5521
I5681
sS'roman'
p5522
I3481
sS'became'
p5523
I2223
sS'context'
p5524
I2105
sS'baseball'
p5525
I1523
sS'bond'
p5526
I4503
sS'finds'
p5527
I2915
sS'flies'
p5528
I4833
sS'reasons'
p5529
I1644
sS'sweet'
p5530
I663
sS'dudes'
p5531
I2398
sS'village'
p5532
I5485
sS'pr'
p5533
I3741
sS'ps'
p5534
I2681
sS'pt'
p5535
I4520
sS'dub'
p5536
I4396
sS'political'
p5537
I892
sS'due'
p5538
I928
sS'teacher'
p5539
I1950
sS'whom'
p5540
I3923
sS'pa'
p5541
I3054
sS'pf'
p5542
I5419
sS'brick'
p5543
I4361
sS'whoa'
p5544
I1824
sS'woke'
p5545
I1486
sS'pm'
p5546
I1314
sS'flight'
p5547
I1342
sS'demand'
p5548
I2370
sS'rocking'
p5549
I3816
sS'plants'
p5550
I5948
sS'georgia'
p5551
I5460
sS'frozen'
p5552
I4762
sS'homework'
p5553
I2268
sS'behavior'
p5554
I2464
sS'fernandez'
p5555
I4303
sS'theres'
p5556
I2661
sS'rip'
p5557
I1317
sS'disappointing'
p5558
I4490
sS'rid'
p5559
I2849
sS'shirt'
p5560
I920
sS'noooo'
p5561
I5972
sS'delicious'
p5562
I1766
sS'peoples'
p5563
I5212
sS'9'
p5564
I1109
sS'higher'
p5565
I2277
sS'arrived'
p5566
I2990
sS'lower'
p5567
I2411
sS'depending'
p5568
I3991
sS'anybody'
p5569
I1703
sS'analysis'
p5570
I2688
sS'cheer'
p5571
I3656
sS'edge'
p5572
I2967
sS'competitive'
p5573
I5050
sS'questions'
p5574
I622
sS'regardless'
p5575
I2150
sS'prince'
p5576
I4391
sS'workers'
p5577
I2962
sS'customers'
p5578
I3003
sS'advocate'
p5579
I5669
sS'unlimited'
p5580
I5912
sS'ignore'
p5581
I2111
sS'fucking'
p5582
I256
sS'understood'
p5583
I3395
sS'candy'
p5584
I1938
sS'crisis'
p5585
I2851
sS'meds'
p5586
I5051
sS'innovation'
p5587
I4816
sS'prod'
p5588
I2005
sS'prob'
p5589
I1948
sS'lmaoooo'
p5590
I2204
sS'palmer'
p5591
I3673
sS's/o'
p5592
I3509
sS'zombie'
p5593
I5194
sS'refuses'
p5594
I5041
sS'intense'
p5595
I5102
sS'range'
p5596
I4390
sS'hatred'
p5597
I3631
sS'wanna'
p5598
I340
sS'credible'
p5599
I5745
sS'mommy'
p5600
I5850
sS'momma'
p5601
I5949
sS'nigga'
p5602
I653
sS'impressed'
p5603
I2618
sS'xoxo'
p5604
I3343
sS'fast'
p5605
I958
sS"we're"
p5606
I281
sS'bruh'
p5607
I747
sS'files'
p5608
I5495
sS'mountains'
p5609
I5247
sS'memory'
p5610
I2431
sS'repeatedly'
p5611
I5470
sS'filed'
p5612
I4976
sS'junior'
p5613
I5146
sS'raising'
p5614
I4405
sS'fries'
p5615
I3167
sS"hasn't"
p5616
I1031
sS'pres'
p5617
I3922
sS'highlight'
p5618
I3019
sS'z'
p5619
I5619
sS'called'
p5620
I400
sS'freak'
p5621
I4006
sS'stick'
p5622
I1437
sS'warning'
p5623
I3202
sS'rally'
p5624
I1777
sS'peace'
p5625
I1310
sS'backs'
p5626
I4461
sS'nick'
p5627
I2377
sS'income'
p5628
I2792
sS'nice'
p5629
I220
sS'users'
p5630
I3389
sS'problems'
p5631
I1216
sS'helping'
p5632
I1587
sS'meaning'
p5633
I2244
sS'allowing'
p5634
I3485
sS'remix'
p5635
I4069
sS'happier'
p5636
I5077
sS'vice'
p5637
I4212
sS'gr8'
p5638
I5420
sS'microsoft'
p5639
I5973
sS'karma'
p5640
I4089
sS'narrative'
p5641
I2336
sS'buffalo'
p5642
I3759
sS'once'
p5643
I440
sS'alien'
p5644
I4339
sS'gang'
p5645
I1940
sS'issues'
p5646
I853
sS'include'
p5647
I2335
sS'breathing'
p5648
I5213
sS'mainstream'
p5649
I4889
sS'wishes'
p5650
I2983
sS'drinking'
p5651
I1092
sS'notes'
p5652
I2274
sS'deals'
p5653
I3206
sS"week's"
p5654
I3698
sS'congrats'
p5655
I472
sS'polling'
p5656
I4564
sS'noted'
p5657
I5153
sS'someday'
p5658
I4313
sS'smaller'
p5659
I4250
sS"you'd"
p5660
I1135
sS'wrestling'
p5661
I3539
sS'traveling'
p5662
I5023
sS'reunion'
p5663
I4419
sS'ummm'
p5664
I4763
sS'folk'
p5665
I5783
sS'find'
p5666
I259
sS'waiting'
p5667
I526
sS'capital'
p5668
I5024
sS'nazis'
p5669
I4721
sS'chose'
p5670
I2900
sS'degree'
p5671
I3090
sS'pushing'
p5672
I2561
sS'sexy'
p5673
I1483
sS'metro'
p5674
I5433
sS'larger'
p5675
I4096
sS'leaving'
p5676
I1328
sS'suggests'
p5677
I4049
sS'apple'
p5678
I737
sS'egypt'
p5679
I5443
sS'app'
p5680
I514
sS'apt'
p5681
I5784
sS'api'
p5682
I5717
sS'duck'
p5683
I4340
sS'apply'
p5684
I2441
sS'fed'
p5685
I2283
sS'usc'
p5686
I5399
sS'stream'
p5687
I1313
sS'usa'
p5688
I1105
sS'iced'
p5689
I5222
sS'frog'
p5690
I4223
sS'few'
p5691
I414
sS'eagles'
p5692
I2798
sS'sort'
p5693
I1718
sS'clever'
p5694
I4242
sS'journalists'
p5695
I3271
sS'sore'
p5696
I5012
sS'penis'
p5697
I3809
sS'women'
p5698
I452
sS'topic'
p5699
I2227
sS'heard'
p5700
I366
sS'!\xe2\x80\xa6'
p5701
I2382
sS'anywhere'
p5702
I1586
sS'aight'
p5703
I4513
sS'proof'
p5704
I1446
sS'tap'
p5705
I3756
sS'thirsty'
p5706
I5525
sS'tax'
p5707
I815
sS'tag'
p5708
I1455
sS'something'
p5709
I198
sS'serial'
p5710
I5430
sS'rape'
p5711
I1141
sS'sis'
p5712
I1518
sS'sir'
p5713
I1140
sS'united'
p5714
I1883
sS'sit'
p5715
I1194
sS'six'
p5716
I1937
sS'brian'
p5717
I2316
sS'instead'
p5718
I610
sS'panic'
p5719
I3982
sS'that\xe2\x80\x99s'
p5720
I1265
sS'attend'
p5721
I3124
sS'abuse'
p5722
I2725
sS'taco'
p5723
I2760
sS'hahahaha'
p5724
I2186
sS'light'
p5725
I1055
sS'interrupted'
p5726
I5127
sS'honestly'
p5727
I496
sS'jolie'
p5728
I5543
sS'discussion'
p5729
I2319
sS'looks'
p5730
I218
sS'spotify'
p5731
I3249
sS'tyler'
p5732
I4194
sS'choose'
p5733
I1337
sS'orange'
p5734
I1502
sS'covered'
p5735
I2175
sS'bye'
p5736
I1227
sS'rsvp'
p5737
I5166
sS'flex'
p5738
I5093
sS'crash'
p5739
I2108
sS'material'
p5740
I3503
sS'flew'
p5741
I5307
sS'republican'
p5742
I1496
sS'articles'
p5743
I3526
sS"night's"
p5744
I3401
sS'edit'
p5745
I3510
sS'nfl'
p5746
I1283
sS'billy'
p5747
I4007
sS'trap'
p5748
I3464
sS'champ'
p5749
I4169
sS'bills'
p5750
I1994
sS'related'
p5751
I1553
sS'our'
p5752
I114
sS'80'
p5753
I4804
sS'out'
p5754
I48
sS'category'
p5755
I5220
sS'chaos'
p5756
I5526
sS'honorable'
p5757
I5589
sS'we\xe2\x80\x99re'
p5758
I3273
sS'supports'
p5759
I2200
sS'york'
p5760
I575
sS'dumpster'
p5761
I3604
sS'organic'
p5762
I5928
sS'g'
p5763
I1417
sS'islamic'
p5764
I2286
sS'fitzpatrick'
p5765
I5956
sS'conversation'
p5766
I1481
sS'4th'
p5767
I1988
sS'hence'
p5768
I4012
sS"doesn't"
p5769
I208
sS'unknown'
p5770
I5527
sS'accent'
p5771
I3906
sS'priority'
p5772
I4917
sS'their'
p5773
I141
sS"god's"
p5774
I4561
sS'slides'
p5775
I5797
sS'july'
p5776
I4181
sS'boring'
p5777
I1811
sS'tommy'
p5778
I4216
sS'patients'
p5779
I4477
sS'clip'
p5780
I2595
sS'linked'
p5781
I5078
sS'afraid'
p5782
I1664
sS'angle'
p5783
I5383
sS'russians'
p5784
I5352
sS'skittles'
p5785
I1735
sS'agency'
p5786
I4412
sS'bagel'
p5787
I5957
sS'which'
p5788
I237
sS'asshole'
p5789
I1629
sS'='
p5790
I636
sS'knees'
p5791
I5696
sS'collaboration'
p5792
I5548
sS'who'
p5793
I72
sS'cracking'
p5794
I4844
sS'why'
p5795
I75
sS'deny'
p5796
I3460
sS'pipe'
p5797
I4420
sS'goals'
p5798
I2179
sS'latinos'
p5799
I4890
sS'chances'
p5800
I3569
sS'electoral'
p5801
I4469
sS'agreed'
p5802
I1175
sS'planning'
p5803
I1850
sS'democrats'
p5804
I1797
sS'chicken'
p5805
I1219
sS'feat'
p5806
I4714
sS'pleased'
p5807
I4577
sS'ha'
p5808
I681
sS'?...'
p5809
I5627
sS'candidates'
p5810
I1365
sS'lemme'
p5811
I2307
sS'combo'
p5812
I3817
sS'local'
p5813
I1395
sS'sued'
p5814
I4927
sS'watching'
p5815
I286
sS'midnight'
p5816
I3320
sS'dope'
p5817
I1289
sS'99%'
p5818
I5814
sS'awww'
p5819
I1857
sS'ones'
p5820
I641
sS'cubs'
p5821
I5234
sS'words'
p5822
I555
sS'chips'
p5823
I3153
sS'champagne'
p5824
I5846
sS'ended'
p5825
I1762
sS'married'
p5826
I1657
sS'qb'
p5827
I1480
sS'view'
p5828
I1125
sS'available'
p5829
I833
sS'responses'
p5830
I4977
sS'closer'
p5831
I1809
sS'cole'
p5832
I4687
sS'closet'
p5833
I4625
sS'genius'
p5834
I2491
sS'closed'
p5835
I2194
sS'stories'
p5836
I1435
sS'pants'
p5837
I1398
sS'exam'
p5838
I4406
sS'trynna'
p5839
I4877
sS'amen'
p5840
I2724
sS'joy'
p5841
I2513
sS'embarrassment'
p5842
I4869
sS'job'
p5843
I377
sS'joe'
p5844
I1373
sS'spoil'
p5845
I5958
sS'swift'
p5846
I4008
sS'jon'
p5847
I3402
sS'april'
p5848
I4224
sS'atleast'
p5849
I4551
sS'bronx'
p5850
I3037
sS'wall'
p5851
I1122
sS'walk'
p5852
I867
sS'subscribe'
p5853
I4295
sS'table'
p5854
I1618
sS'decent'
p5855
I2067
sS'responds'
p5856
I4789
sS'literal'
p5857
I4806
sS'bby'
p5858
I4573
sS'bbq'
p5859
I4144
sS'mike'
p5860
I1174
sS'hmu'
p5861
I2979
sS'hmm'
p5862
I1536
sS'present'
p5863
I2011
sS'abandoned'
p5864
I5994
sS'unlike'
p5865
I3188
sS'vanilla'
p5866
I5544
sS'choices'
p5867
I2468
sS'will'
p5868
I61
sS'stunning'
p5869
I2531
sS'wild'
p5870
I994
sS'~'
p5871
I773
sS'supply'
p5872
I3786
sS'barely'
p5873
I1539
sS'refs'
p5874
I5736
sS'thus'
p5875
I3753
sS'avi'
p5876
I2025
sS'thug'
p5877
I4200
sS'ave'
p5878
I3303
sS'whore'
p5879
I5152
sS'perhaps'
p5880
I1346
sS'cross'
p5881
I2872
sS'eric'
p5882
I2348
sS'member'
p5883
I2310
sS'largest'
p5884
I4163
sS'gets'
p5885
I413
sS'difficult'
p5886
I2314
sS'yooo'
p5887
I5128
sS'slave'
p5888
I5873
sS'promo'
p5889
I4031
sS'premiere'
p5890
I2627
sS'retarded'
p5891
I3876
sS'disagree'
p5892
I1607
sS'collab'
p5893
I5393
sS'beast'
p5894
I2991
sS'coaches'
p5895
I4565
sS'student'
p5896
I1750
sS'collar'
p5897
I5768
sS'warming'
p5898
I4075
sS'approve'
p5899
I4282
sS'fighting'
p5900
I1298
sS'english'
p5901
I1645
sS'load'
p5902
I3805
sS'cried'
p5903
I2762
sS'heavily'
p5904
I5300
sS'percent'
p5905
I3175
sS"should've"
p5906
I1650
sS'recap'
p5907
I5678
sS'happiness'
p5908
I3531
sS'console'
p5909
I5353
sS'bell'
p5910
I3079
sS'sky'
p5911
I2706
sS'discuss'
p5912
I1489
sS'book'
p5913
I485
sS'attractive'
p5914
I3628
sS'myth'
p5915
I5013
sS"who's"
p5916
I613
sS'protesters'
p5917
I3378
sS'know'
p5918
I59
sS'nor'
p5919
I2397
sS'press'
p5920
I1048
sS'10/10'
p5921
I4971
sS'racists'
p5922
I2701
sS'helpful'
p5923
I2610
sS'miami'
p5924
I2542
sS'loser'
p5925
I1786
sS'loses'
p5926
I3160
sS'january'
p5927
I3468
sS'because'
p5928
I135
sS'scared'
p5929
I1136
sS'searching'
p5930
I4042
sS'tumblr'
p5931
I4160
sS'platforms'
p5932
I5851
sS'growth'
p5933
I3570
sS'empire'
p5934
I3857
sS'scares'
p5935
I5901
sS'jeremy'
p5936
I4939
sS'lead'
p5937
I1018
sS'lean'
p5938
I5067
sS'14th'
p5939
I4491
sS'leader'
p5940
I1649
sS'ripped'
p5941
I4578
sS'murdered'
p5942
I3337
sS'stay'
p5943
I437
sS'rare'
p5944
I2768
sS'extension'
p5945
I5600
sS'getting'
p5946
I207
sS'column'
p5947
I3611
sS'universe'
p5948
I1792
sS'shipping'
p5949
I3605
sS'fear'
p5950
I1331
sS'swear'
p5951
I1210
sS'sweat'
p5952
I3835
sS'create'
p5953
I1616
sS'own'
p5954
I332
sS'owe'
p5955
I3883
sS'headphone'
p5956
I4704
sS'weather'
p5957
I948
sS'promise'
p5958
I2055
sS'brush'
p5959
I4509
sS'registration'
p5960
I5223
sS'yankee'
p5961
I5394
sS'convicted'
p5962
I5061
sS'van'
p5963
I3766
sS'transfer'
p5964
I4607
sS'*'
p5965
I2168
sS'apps'
p5966
I1936
sS'kidding'
p5967
I1525
sS'triggered'
p5968
I5014
sS"i've"
p5969
I183
sS'funds'
p5970
I3409
sS'bitches'
p5971
I1775
sS'volume'
p5972
I4860
sS'made'
p5973
I221
sS'tactics'
p5974
I5852
sS'whether'
p5975
I1687
sS'protesting'
p5976
I4790
sS'record'
p5977
I888
sS'below'
p5978
I3131
sS'cake'
p5979
I1829
sS'cmon'
p5980
I3168
sS'---'
p5981
I3055
sS'goodness'
p5982
I2593
sS'ew'
p5983
I3705
sS'incredible'
p5984
I1104
sS'boot'
p5985
I4438
sS'other'
p5986
I194
sS'boom'
p5987
I3106
sS'sick'
p5988
I574
sS'incredibly'
p5989
I2095
sS'conclusion'
p5990
I4537
sS'kinds'
p5991
I4114
sS'june'
p5992
I4754
sS'kinda'
p5993
I726
sS'intentionally'
p5994
I5687
s.