(dp0
S'raining'
p1
I4807
sS'yellow'
p2
I3011
sS'four'
p3
I1292
sS'woods'
p4
I4217
sS'hanging'
p5
I1820
sS'increase'
p6
I3261
sS'lord'
p7
I1474
sS'foul'
p8
I5601
sS'bringing'
p9
I1389
sS'prize'
p10
I3665
sS'wednesday'
p11
I1585
sS'oooh'
p12
I4555
sS'straight'
p13
I767
sS'tired'
p14
I983
sS'miller'
p15
I3985
sS'bacon'
p16
I2590
sS'second'
p17
I542
sS'errors'
p18
I5509
sS'forgetting'
p19
I4957
sS'cooking'
p20
I2886
sS'fingers'
p21
I2060
sS'hero'
p22
I2101
sS'reporter'
p23
I2640
sS'brainwashed'
p24
I5580
sS'here'
p25
I107
sS'reported'
p26
I2222
sS'china'
p27
I1914
sS'hers'
p28
I5697
sS'kids'
p29
I478
sS'k'
p30
I1699
sS'reports'
p31
I2208
sS"i'd"
p32
I339
sS'military'
p33
I1844
sS"i'm"
p34
I35
sS'criticism'
p35
I3972
sS'golden'
p36
I2565
sS'replace'
p37
I2758
sS'brought'
p38
I1156
sS'cocaine'
p39
I3992
sS'unit'
p40
I5255
sS'cheating'
p41
I2924
sS'dna'
p42
I5103
sS'spoke'
p43
I3031
sS'dnc'
p44
I3028
sS'music'
p45
I446
sS'therefore'
p46
I4596
sS'strike'
p47
I3768
sS'until'
p48
I393
sS'females'
p49
I4692
sS'holy'
p50
I742
sS'relax'
p51
I3551
sS'successful'
p52
I2387
sS'brings'
p53
I2228
sS'holt'
p54
I1450
sS'yahoo'
p55
I4256
sS'hurt'
p56
I847
sS'glass'
p57
I1908
sS'90'
p58
I2702
sS'hole'
p59
I2265
sS'hold'
p60
I809
sS'locked'
p61
I2539
sS'locker'
p62
I5706
sS'example'
p63
I1598
sS'triple'
p64
I5613
sS'british'
p65
I3424
sS'want'
p66
I113
sS'honest'
p67
I1387
sS'absolute'
p68
I2505
sS'hoe'
p69
I2201
sS'complaining'
p70
I3352
sS'travel'
p71
I1569
sS'damage'
p72
I3082
sS'machine'
p73
I1796
sS'how'
p74
I56
sS'hot'
p75
I442
sS'hop'
p76
I2777
sS'yum'
p77
I5122
sS'gaming'
p78
I4791
sS'beauty'
p79
I1583
sS'wrong'
p80
I298
sS'types'
p81
I3651
sS'effective'
p82
I3495
sS'wins'
p83
I998
sS'fictional'
p84
I3638
sS'keeps'
p85
I1239
sS'democratic'
p86
I2993
sS'wing'
p87
I2637
sS'wind'
p88
I3353
sS'wine'
p89
I1139
sS'feedback'
p90
I3154
sS'fit'
p91
I1399
sS'aleppo'
p92
I4497
sS'screaming'
p93
I1867
sS'fix'
p94
I1024
sS'hidden'
p95
I5003
sS'easier'
p96
I1968
sS'thrones'
p97
I5836
sS'effects'
p98
I4626
sS'schools'
p99
I2619
sS'silver'
p100
I4267
sS'represents'
p101
I5373
sS'addicted'
p102
I5015
sS'financial'
p103
I3063
sS'series'
p104
I863
sS'allah'
p105
I4822
sS'spider'
p106
I5737
sS"we'd"
p107
I2476
sS'ring'
p108
I2003
sS'whip'
p109
I4987
sS'rt'
p110
I430
sS'trending'
p111
I3385
sS'ha'
p112
I681
sS're'
p113
I1667
sS'encourage'
p114
I4653
sS'rb'
p115
I5317
sS'smh'
p116
I429
sS'rn'
p117
I614
sS'millions'
p118
I1725
sS'foundation'
p119
I904
sS'threatened'
p120
I4616
sS'necessarily'
p121
I4346
sS'ate'
p122
I1697
sS'heading'
p123
I1712
sS'silicon'
p124
I4272
sS'shipped'
p125
I5172
sS'walmart'
p126
I4906
sS"today's"
p127
I1421
sS'9pm'
p128
I5447
sS'channels'
p129
I4756
sS'wash'
p130
I3480
sS'basketball'
p131
I2611
sS'service'
p132
I907
sS'engagement'
p133
I5670
sS'needed'
p134
I789
sS'master'
p135
I2730
sS'listed'
p136
I4715
sS'legs'
p137
I2442
sS'bitter'
p138
I4930
sS'listen'
p139
I520
sS'collapse'
p140
I5042
sS'wisdom'
p141
I4180
sS'trek'
p142
I5934
sS'showed'
p143
I1554
sS'coward'
p144
I4251
sS'tree'
p145
I2501
sS'nations'
p146
I5179
sS'project'
p147
I1158
sS'pneumonia'
p148
I3818
sS'feeling'
p149
I664
sS'boston'
p150
I2425
sS'corny'
p151
I4281
sS'\xf0\x9f\x98\xad\xf0\x9f\x98\x82'
p152
I5287
sS'picks'
p153
I2617
sS'dozen'
p154
I5545
sS'affairs'
p155
I5581
sS'responsible'
p156
I2196
sS'recommended'
p157
I4870
sS'causing'
p158
I5528
sS'doors'
p159
I3993
sS'\xf0\x9f\x98\xad\xf0\x9f\x98\xad'
p160
I1600
sS'shall'
p161
I1984
sS'thrilled'
p162
I3938
sS'doin'
p163
I3210
sS'wells'
p164
I3195
sS'mouth'
p165
I1062
sS'letter'
p166
I2697
sS'organization'
p167
I3321
sS'dummy'
p168
I5203
sS'episode'
p169
I725
sS'released'
p170
I1562
sS'professor'
p171
I2638
sS'camp'
p172
I2124
sS'tech'
p173
I1355
sS'doesn\xe2\x80\x99t'
p174
I2195
sS'scream'
p175
I3576
sS'came'
p176
I545
sS'marvel'
p177
I4736
sS'saying'
p178
I348
sS'bomb'
p179
I953
sS'meetings'
p180
I4170
sS'nominated'
p181
I5549
sS'participate'
p182
I5602
sS'tempted'
p183
I5582
sS'lessons'
p184
I4486
sS'busy'
p185
I1081
sS'headline'
p186
I3115
sS'menu'
p187
I4487
sS'bust'
p188
I4433
sS'appreciated'
p189
I2214
sS'rihanna'
p190
I4907
sS'bush'
p191
I1241
sS'touched'
p192
I4979
sS'rich'
p193
I1325
sS'rice'
p194
I2712
sS'plate'
p195
I3095
sS'pocket'
p196
I3073
sS'net'
p197
I3499
sS'lmao'
p198
I162
sS'nicely'
p199
I4304
sS'patch'
p200
I4530
sS'piggy'
p201
I5874
sS'release'
p202
I962
sS'respond'
p203
I1961
sS'blew'
p204
I3211
sS'disaster'
p205
I2890
sS'fair'
p206
I838
sS'goodnight'
p207
I2180
sS'result'
p208
I3033
sS'fail'
p209
I2399
sS'best'
p210
I134
sS'lots'
p211
I817
sS'irs'
p212
I5288
sS'rings'
p213
I4187
sS'score'
p214
I1561
sS'irl'
p215
I4177
sS'wage'
p216
I5104
sS'men'
p217
I649
sS'nature'
p218
I3323
sS'rolled'
p219
I4810
sS'aesthetic'
p220
I5021
sS'wtf'
p221
I532
sS'wth'
p222
I3888
sS'debt'
p223
I2691
sS'accident'
p224
I2534
sS'country'
p225
I466
sS'pitt'
p226
I4155
sS'planned'
p227
I3384
sS'lookin'
p228
I2676
sS'logic'
p229
I2434
sS'argue'
p230
I2156
sS'asked'
p231
I712
sS'and'
p232
I11
sS'irresponsible'
p233
I4972
sS'2nd'
p234
I1137
sS'cult'
p235
I4397
sS'diff'
p236
I4371
sS'blonde'
p237
I3890
sS'101'
p238
I4925
sS'investors'
p239
I5892
sS'union'
p240
I2695
sS'.'
p241
I2
sS'much'
p242
I109
sS'stadium'
p243
I2315
sS'privilege'
p244
I3196
sS'incompetent'
p245
I5929
sS'life'
p246
I187
sS'homeland'
p247
I5413
sS'spit'
p248
I4627
sS'dave'
p249
I2954
sS'substance'
p250
I5411
sS'child'
p251
I822
sS'worked'
p252
I1082
sS'haters'
p253
I3272
sS'spin'
p254
I2652
sS'cunt'
p255
I4817
sS'chill'
p256
I1094
sS'presidency'
p257
I2576
sS'played'
p258
I746
sS'player'
p259
I1112
sS'campaigning'
p260
I5214
sS'trusted'
p261
I5550
sS'things'
p262
I245
sS'split'
p263
I2735
sS'babies'
p264
I2378
sS'toasted'
p265
I5769
sS'european'
p266
I5204
sS'fairly'
p267
I4201
sS'tops'
p268
I5412
sS'tune'
p269
I625
sS'!!!!!!!!'
p270
I4734
sS'\xf0\x9f\x99\x84\xf0\x9f\x99\x84\xf0\x9f\x99\x84'
p271
I5624
sS'corporate'
p272
I3324
sS'opinions'
p273
I2188
sS'sleepy'
p274
I5731
sS'????'
p275
I946
sS'previous'
p276
I3519
sS'hah'
p277
I3379
sS'had'
p278
I115
sS'innocent'
p279
I2170
sS'prison'
p280
I2525
sS'has'
p281
I82
sS'hat'
p282
I1520
sS'possible'
p283
I803
sS'awhile'
p284
I3419
sS'possibly'
p285
I1729
sS'birth'
p286
I1868
sS'shadow'
p287
I5471
sS'unique'
p288
I5004
sS'desire'
p289
I5884
sS'bobby'
p290
I3335
sS'steph'
p291
I4764
sS'remind'
p292
I2416
sS'steps'
p293
I2860
sS'attorney'
p294
I5401
sS'right'
p295
I87
sS'old'
p296
I303
sS'ole'
p297
I5250
sS'crowd'
p298
I1773
sS'people'
p299
I86
sS'easy'
p300
I677
sS'crown'
p301
I5435
sS'harassment'
p302
I4064
sS'creep'
p303
I5798
sS'enemies'
p304
I4317
sS'\xf0\x9f\xa4\x94\xf0\x9f\xa4\x94\xf0\x9f\xa4\x94'
p305
I4126
sS'for'
p306
I15
sS'bottom'
p307
I1785
sS'fox'
p308
I1114
sS'creative'
p309
I2408
sS'\xf0\x9f\x98\xad\xf0\x9f\x98\xad\xf0\x9f\x98\xad\xf0\x9f\x98\xad'
p310
I3897
sS'individuals'
p311
I5188
sS'umm'
p312
I3898
sS'foh'
p313
I4202
sS'defensive'
p314
I3444
sS'losing'
p315
I1208
sS'dollars'
p316
I2009
sS'citizens'
p317
I2249
sS'o'
p318
I1312
sS'stoked'
p319
I4439
sS'palestinians'
p320
I5738
sS'slightly'
p321
I2883
sS'raised'
p322
I2736
sS'statements'
p323
I3260
sS'soo'
p324
I3918
sS'son'
p325
I807
sS'thankful'
p326
I3901
sS'sos'
p327
I4924
sS'wrap'
p328
I4127
sS'sox'
p329
I3477
sS'support'
p330
I338
sS'constantly'
p331
I2734
sS'raped'
p332
I3782
sS'wordpress'
p333
I3476
sS'goddamn'
p334
I4440
sS'jane'
p335
I4586
sS'here\xe2\x80\x99s'
p336
I4210
sS'happy'
p337
I130
sS'offer'
p338
I2034
sS'notifications'
p339
I2775
sS'melania'
p340
I4538
sS'congratulations'
p341
I1069
sS"else's"
p342
I5363
sS'inside'
p343
I967
sS'devices'
p344
I3689
sS'proud'
p345
I604
sS'disgrace'
p346
I2653
sS'tournament'
p347
I4014
sS'proven'
p348
I2698
sS'proves'
p349
I3609
sS'exist'
p350
I1694
sS'supporters'
p351
I885
sS'floor'
p352
I1708
sS'actor'
p353
I2930
sS'republic'
p354
I5235
sS'developers'
p355
I3496
sS'smell'
p356
I2187
sS'roll'
p357
I1326
sS'models'
p358
I3488
sS'muslims'
p359
I1181
sS'intent'
p360
I5472
sS'rolling'
p361
I2994
sS'time'
p362
I77
sS'push'
p363
I1783
sS':/'
p364
I968
sS':('
p365
I469
sS':)'
p366
I166
sS'chain'
p367
I3943
sS'whoever'
p368
I2275
sS'::'
p369
I3998
sS'chair'
p370
I2654
sS':3'
p371
I4156
sS'vet'
p372
I5719
sS"when's"
p373
I4883
sS'veterans'
p374
I3912
sS':o'
p375
I4372
sS'jerk'
p376
I4043
sS':d'
p377
I1057
sS'cheap'
p378
I1907
sS'choice'
p379
I895
sS'stays'
p380
I4090
sS'exact'
p381
I1753
sS'minute'
p382
I1232
sS':s'
p383
I5388
sS'tear'
p384
I3666
sS'leave'
p385
I511
sS'solved'
p386
I5236
sS'settle'
p387
I3466
sS'subway'
p388
I2541
sS'team'
p389
I273
sS'prevent'
p390
I4341
sS'sigh'
p391
I3309
sS'prediction'
p392
I5215
sS'sign'
p393
I797
sS'shirts'
p394
I2682
sS'\xf0\x9f\x94\xa5\xf0\x9f\x94\xa5'
p395
I5148
sS'educate'
p396
I5551
sS'current'
p397
I1367
sS'remembered'
p398
I3361
sS'falling'
p399
I2624
sS'ground'
p400
I1676
sS'boost'
p401
I5129
sS'jury'
p402
I5885
sS'funeral'
p403
I5608
sS'understanding'
p404
I2939
sS'snack'
p405
I5261
sS'yards'
p406
I3405
sS'address'
p407
I1606
sS'alone'
p408
I857
sS'along'
p409
I978
sS'breathing'
p410
I5213
sS'brilliant'
p411
I1577
sS'wherever'
p412
I4792
sS'accomplished'
p413
I4849
sS'studies'
p414
I4793
sS'love'
p415
I64
sS'prefer'
p416
I1588
sS'logical'
p417
I5309
sS'bloody'
p418
I5005
sS'fake'
p419
I830
sS'sky'
p420
I2706
sS'working'
p421
I402
sS'positive'
p422
I1476
sS'angry'
p423
I1617
sS'!!!!!!'
p424
I1825
sS'opposed'
p425
I3622
sS'wondering'
p426
I1408
sS'films'
p427
I4058
sS'loving'
p428
I1257
sS'introducing'
p429
I4445
sS'afford'
p430
I2159
sS'apparent'
p431
I5591
sS'oregon'
p432
I5950
sS'visual'
p433
I5787
sS'everywhere'
p434
I1444
sS'behalf'
p435
I5671
sS'deserved'
p436
I2152
sS'pretend'
p437
I3258
sS'abortion'
p438
I5861
sS'believes'
p439
I3012
sS'values'
p440
I3721
sS'believed'
p441
I4741
sS'awesome'
p442
I284
sS'allowed'
p443
I1255
sS'offense'
p444
I1965
sS'stole'
p445
I2567
sS'winter'
p446
I2022
sS'divided'
p447
I5354
sS'snaps'
p448
I3280
sS'laundry'
p449
I4873
sS'spot'
p450
I1023
sS'applications'
p451
I5788
sS'date'
p452
I876
sS'such'
p453
I314
sS'suck'
p454
I963
sS'revealed'
p455
I3994
sS'stress'
p456
I3058
sS'natural'
p457
I2720
sS'ss'
p458
I4693
sS'st'
p459
I2062
sS'si'
p460
I5837
sS'so'
p461
I24
sS'sm'
p462
I4122
sS'sc'
p463
I4441
sS'sa'
p464
I5838
sS'pulled'
p465
I2125
sS'sf'
p466
I816
sS'se'
p467
I5935
sS'unacceptable'
p468
I4742
sS'years'
p469
I235
sS'course'
p470
I439
sS'episodes'
p471
I2224
sS'kanye'
p472
I3704
sS'djt'
p473
I4501
sS'jim'
p474
I2317
sS'stupidity'
p475
I3929
sS'faves'
p476
I4377
sS'decades'
p477
I3596
sS'petition'
p478
I5638
sS'instantly'
p479
I5626
sS'matches'
p480
I4794
sS'smarter'
p481
I4139
sS"obama's"
p482
I1836
sS'records'
p483
I3176
sS'ketchup'
p484
I4954
sS'quarter'
p485
I3875
sS'square'
p486
I2004
sS'lowkey'
p487
I2368
sS'crushing'
p488
I5799
sS'sexually'
p489
I5951
sS'troll'
p490
I1633
sS'actively'
p491
I5708
sS'rioters'
p492
I5248
sS'jokes'
p493
I1918
sS'blm'
p494
I3482
sS'seriously'
p495
I508
sS'investigation'
p496
I2280
sS'internet'
p497
I915
sS'suggesting'
p498
I5374
sS'dodgers'
p499
I4100
sS'million'
p500
I832
sS'possibility'
p501
I4579
sS'quite'
p502
I900
sS'disrespect'
p503
I3311
sS'complicated'
p504
I4287
sS'besides'
p505
I2131
sS'grandma'
p506
I3276
sS'training'
p507
I1556
sS'dunno'
p508
I3023
sS'punk'
p509
I3534
sS'massive'
p510
I2332
sS'emotion'
p511
I5327
sS'saving'
p512
I2809
sS'spoken'
p513
I3731
sS'one'
p514
I50
sS'submit'
p515
I2918
sS'spanish'
p516
I2765
sS'vote'
p517
I331
sS'open'
p518
I535
sS'city'
p519
I470
sS'bite'
p520
I3295
sS'fml'
p521
I5839
sS'2'
p522
I175
sS'draft'
p523
I2726
sS'typing'
p524
I5006
sS'williams'
p525
I3189
sS'shawn'
p526
I5775
sS'proving'
p527
I4504
sS'ridiculous'
p528
I1202
sS'boyfriend'
p529
I2118
sS'i\xe2\x80\x99ll'
p530
I2752
sS'future'
p531
I706
sS'damned'
p532
I5886
sS'addressing'
p533
I5867
sS'san'
p534
I764
sS'sam'
p535
I1920
sS'supremacist'
p536
I4236
sS'turned'
p537
I1054
sS'argument'
p538
I1542
sS'alley'
p539
I5490
sS'sad'
p540
I415
sS'woah'
p541
I2981
sS'say'
p542
I136
sS'saw'
p543
I353
sS'sat'
p544
I2374
sS'warriors'
p545
I3891
sS'aside'
p546
I3235
sS'note'
p547
I1322
sS'omfg'
p548
I2271
sS'take'
p549
I156
sS'wanting'
p550
I2589
sS'opposite'
p551
I2354
sS'knew'
p552
I581
sS'knee'
p553
I3314
sS'pages'
p554
I3778
sS'lawn'
p555
I5936
sS'average'
p556
I2807
sS'phil'
p557
I3410
sS'drive'
p558
I914
sS'federal'
p559
I1957
sS'salt'
p560
I4059
sS'laws'
p561
I1929
sS'madison'
p562
I5111
sS'\xe2\x9c\xa8'
p563
I1666
sS'bright'
p564
I2959
sS'aggressive'
p565
I4288
sS'slow'
p566
I1548
sS'\xe2\x9c\x85'
p567
I4510
sS'fb'
p568
I1995
sS'tears'
p569
I1763
sS'going'
p570
I110
sS'hockey'
p571
I2339
sS'outrage'
p572
I4521
sS'carolina'
p573
I2211
sS'assistant'
p574
I4808
sS'prime'
p575
I2375
sS'artist'
p576
I1620
sS'ahmad'
p577
I3717
sS'worried'
p578
I1684
sS'roger'
p579
I5461
sS"could've"
p580
I2713
sS'bombs'
p581
I2643
sS'worries'
p582
I2721
sS'where'
p583
I138
sS'vision'
p584
I3687
sS'espn'
p585
I4639
sS'anyways'
p586
I2373
sS'surgery'
p587
I3463
sS'jumped'
p588
I4908
sS'sites'
p589
I3954
sS'scoring'
p590
I4731
sS'jobs'
p591
I1243
sS'screen'
p592
I1306
sS'awards'
p593
I3688
sS'jets'
p594
I1992
sS'mans'
p595
I3259
sS'many'
p596
I203
sS's'
p597
I328
sS'expression'
p598
I5592
sS"can't"
p599
I96
sS'twin'
p600
I3116
sS'anti'
p601
I2805
sS'article'
p602
I673
sS'boat'
p603
I2756
sS'math'
p604
I2139
sS'caring'
p605
I4584
sS'stretch'
p606
I3629
sS'west'
p607
I1065
sS'vacation'
p608
I2448
sS'breath'
p609
I3177
sS'combined'
p610
I5375
sS'wants'
p611
I477
sS'lanes'
p612
I5569
sS'thousand'
p613
I4038
sS'photos'
p614
I1058
sS'hashtag'
p615
I1821
sS'former'
p616
I1345
sS'polls'
p617
I954
sS'policies'
p618
I2010
sS'newspaper'
p619
I4378
sS'situation'
p620
I1700
sS'ive'
p621
I1614
sS'engaged'
p622
I4755
sS'bros'
p623
I4862
sS'blah'
p624
I5845
sS'technology'
p625
I3009
sS'fame'
p626
I4874
sS'verified'
p627
I5820
sS'rooting'
p628
I4130
sS"trump's"
p629
I487
sS'putin'
p630
I1855
sS'cheers'
p631
I1651
sS'tracking'
p632
I4196
sS'nothin'
p633
I5130
sS'costs'
p634
I3135
sS'trains'
p635
I3878
sS'summer'
p636
I1095
sS'morons'
p637
I5301
sS'being'
p638
I169
sS'rest'
p639
I758
sS'weekly'
p640
I3749
sS'\xef\xb8\x8f\xef\xb8\x8f'
p641
I3428
sS'\xf0\x9f\x98\x82\xf0\x9f\x98\x82\xf0\x9f\x98\x82\xf0\x9f\x98\x82\xf0\x9f\x98\x82'
p642
I2974
sS'dicks'
p643
I5068
sS'around'
p644
I311
sS'sums'
p645
I5511
sS'pos'
p646
I4953
sS'dark'
p647
I1344
sS'(('
p648
I5451
sS'()'
p649
I2292
sS'traffic'
p650
I1533
sS'darn'
p651
I5480
sS'libs'
p652
I4968
sS'world'
p653
I294
sS'dare'
p654
I1933
sS'stranger'
p655
I2453
sS'millennials'
p656
I2548
sS'gimme'
p657
I4525
sS'clay'
p658
I5756
sS"couldn't"
p659
I566
sS'racial'
p660
I2908
sS'thinks'
p661
I824
sS'yesss'
p662
I3299
sS'memories'
p663
I2679
sS'noon'
p664
I4124
sS'virginia'
p665
I3709
sS'exit'
p666
I4698
sS'23rd'
p667
I4039
sS'refer'
p668
I5800
sS'biased'
p669
I2251
sS'scientific'
p670
I3854
sS'power'
p671
I696
sS'iconic'
p672
I4020
sS'leadership'
p673
I2395
sS'throwback'
p674
I3861
sS';)'
p675
I518
sS'stone'
p676
I3836
sS'package'
p677
I3234
sS'industry'
p678
I2120
sS'favorite'
p679
I349
sS'meal'
p680
I2950
sS'neighbor'
p681
I4299
sS'act'
p682
I918
sS'luck'
p683
I635
sS'burning'
p684
I3192
sS'image'
p685
I1487
sS'marlins'
p686
I5090
sS'homeless'
p687
I3139
sS'parties'
p688
I2240
sS'technically'
p689
I3212
sS'legacy'
p690
I2622
sS"how's"
p691
I1636
sS'her'
p692
I90
sS'hes'
p693
I1610
sS'hey'
p694
I257
sS'lmfaooo'
p695
I2516
sS"how'd"
p696
I3913
sS'bubble'
p697
I3907
sS'complete'
p698
I1413
sS'survived'
p699
I5742
sS'with'
p700
I29
sS'buying'
p701
I1409
sS'handsome'
p702
I2934
sS"they're"
p703
I277
sS'rush'
p704
I2714
sS'october'
p705
I924
sS'rage'
p706
I3770
sS'taught'
p707
I2732
sS'dirty'
p708
I1949
sS'politically'
p709
I3413
sS'agree'
p710
I399
sS'gone'
p711
I685
sS'ac'
p712
I5302
sS'ab'
p713
I4507
sS'ohh'
p714
I4115
sS'ad'
p715
I1432
sS'ag'
p716
I5494
sS'af'
p717
I825
sS'ai'
p718
I4116
sS'ah'
p719
I902
sS'aj'
p720
I5237
sS'am'
p721
I144
sS'al'
p722
I1860
sS'watches'
p723
I4678
sS'an'
p724
I68
sS'ap'
p725
I2404
sS'as'
p726
I58
sS'at'
p727
I33
sS'aw'
p728
I1287
sS'walks'
p729
I4324
sS'ay'
p730
I4863
sS'watched'
p731
I713
sS'cream'
p732
I1280
sS'yoga'
p733
I3421
sS'graduate'
p734
I5497
sS'tight'
p735
I1886
sS'hofstra'
p736
I4780
sS'summit'
p737
I4268
sS'puppy'
p738
I2696
sS'disgraceful'
p739
I5653
sS'congress'
p740
I1956
sS'forgot'
p741
I684
sS'a1'
p742
I4226
sS'walker'
p743
I5930
sS'terry'
p744
I3247
sS'mask'
p745
I3627
sS'having'
p746
I352
sS'mass'
p747
I2171
sS'adam'
p748
I3668
sS'original'
p749
I1186
sS'9/11'
p750
I2206
sS'consider'
p751
I1436
sS'caused'
p752
I3029
sS'welfare'
p753
I5020
sS'reasoning'
p754
I5827
sS'causes'
p755
I4145
sS'vikings'
p756
I5331
sS'ty'
p757
I1402
sS'tv'
p758
I541
sS'spirit'
p759
I2495
sS'tn'
p760
I5271
sS'to'
p761
I6003
sS'tail'
p762
I5421
sS'tm'
p763
I4512
sS'tf'
p764
I1388
sS'smile'
p765
I1381
sS'td'
p766
I3091
sS'case'
p767
I534
sS'appointment'
p768
I4746
sS'condition'
p769
I4342
sS'cable'
p770
I2887
sS'african-american'
p771
I5032
sS'laying'
p772
I5121
sS'joined'
p773
I3580
sS'large'
p774
I1674
sS'sand'
p775
I4679
sS'sane'
p776
I5512
sS'harry'
p777
I2293
sS'small'
p778
I751
sS'past'
p779
I669
sS'pass'
p780
I922
sS'investment'
p781
I4289
sS'richard'
p782
I3710
sS'clock'
p783
I3577
sS'favor'
p784
I2424
sS'section'
p785
I2189
sS'fucks'
p786
I3435
sS'scientists'
p787
I4834
sS'full'
p788
I503
sS'hours'
p789
I536
sS'november'
p790
I1424
sS'legend'
p791
I2741
sS'brutal'
p792
I4174
sS'pics'
p793
I810
sS'prior'
p794
I4478
sS'social'
p795
I835
sS'action'
p796
I1285
sS"would've"
p797
I1478
sS'vic'
p798
I5739
sS'via'
p799
I296
sS'followed'
p800
I1885
sS'adidas'
p801
I5069
sS'.\xe2\x80\xa6'
p802
I1077
sS'vin'
p803
I5995
sS'vip'
p804
I4845
sS'gosh'
p805
I2956
sS'pitching'
p806
I4608
sS'gorgeous'
p807
I1153
sS'homework'
p808
I2268
sS'more'
p809
I73
sS'teen'
p810
I4235
sS'door'
p811
I1555
sS'company'
p812
I1067
sS'corrected'
p813
I4781
sS'tested'
p814
I5707
sS'keeping'
p815
I1640
sS'science'
p816
I1611
sS'mall'
p817
I2401
sS'sent'
p818
I861
sS'learn'
p819
I757
sS'knocked'
p820
I4628
sS'male'
p821
I2012
sS'beautiful'
p822
I329
sS'scam'
p823
I4554
sS'stated'
p824
I4795
sS'suggestions'
p825
I2569
sS'accept'
p826
I2039
sS'autumn'
p827
I3903
sS'salty'
p828
I3289
sS'sense'
p829
I652
sS'dress'
p830
I1330
sS'information'
p831
I1741
sS'tulsa'
p832
I4203
sS'hugs'
p833
I2897
sS'browns'
p834
I2903
sS'plant'
p835
I4929
sS'intended'
p836
I4970
sS'soundtrack'
p837
I5498
sS'plane'
p838
I1881
sS'refuse'
p839
I2587
sS'register'
p840
I3074
sS'mexican'
p841
I2739
sS'reminded'
p842
I3475
sS'installed'
p843
I5913
sS'attitude'
p844
I3069
sS'paper'
p845
I1419
sS'scott'
p846
I1731
sS'replies'
p847
I4113
sS'broadway'
p848
I3685
sS'smiling'
p849
I3632
sS'its'
p850
I186
sS'bummed'
p851
I5513
sS'ruining'
p852
I4588
sS'bummer'
p853
I4964
sS'sauce'
p854
I2333
sS'icymi'
p855
I4878
sS'sucked'
p856
I3600
sS'everytime'
p857
I4072
sS'always'
p858
I154
sS'found'
p859
I423
sS'shocking'
p860
I3536
sS'status'
p861
I2017
sS'england'
p862
I3940
sS'reduce'
p863
I5311
sS'eve'
p864
I4901
sS'operation'
p865
I5402
sS'murders'
p866
I5397
sS'really'
p867
I92
sS'try'
p868
I297
sS'missed'
p869
I593
sS'ftw'
p870
I5807
sS'research'
p871
I1333
sS'misses'
p872
I5976
sS'darling'
p873
I5238
sS'salute'
p874
I4154
sS'belief'
p875
I5872
sS'imagine'
p876
I667
sS'director'
p877
I2716
sS'owners'
p878
I3357
sS"woman's"
p879
I5767
sS'w'
p880
I403
sS'bernie'
p881
I1172
sS'major'
p882
I1028
sS'number'
p883
I717
sS'guess'
p884
I325
sS'heads'
p885
I2077
sS'jew'
p886
I3978
sS'jet'
p887
I3020
sS'threatening'
p888
I4658
sS'\xf0\x9f\x98\x9b'
p889
I2437
sS'\xf0\x9f\x98\x98'
p890
I782
sS'\xf0\x9f\x98\x9e'
p891
I2417
sS'relationship'
p892
I1759
sS'\xf0\x9f\x98\x9c'
p893
I1167
sS'\xf0\x9f\x98\x93'
p894
I4432
sS'\xf0\x9f\x98\x92'
p895
I1329
sS'\xf0\x9f\x98\x91'
p896
I2409
sS'\xf0\x9f\x98\x90'
p897
I2264
sS'interviewed'
p898
I5131
sS'\xf0\x9f\x98\x95'
p899
I1997
sS'\xf0\x9f\x98\x94'
p900
I1596
sS'\xf0\x9f\x98\x8b'
p901
I2877
sS'\xf0\x9f\x98\x8a'
p902
I569
sS'\xf0\x9f\x98\x89'
p903
I658
sS'\xf0\x9f\x98\x88'
p904
I2353
sS'\xf0\x9f\x98\x8f'
p905
I1538
sS'\xf0\x9f\x98\x8e'
p906
I1026
sS'\xf0\x9f\x98\x8d'
p907
I676
sS'\xf0\x9f\x98\x8c'
p908
I2510
sS'\xf0\x9f\x98\x83'
p909
I2964
sS'\xf0\x9f\x98\x82'
p910
I165
sS'\xf0\x9f\x98\x81'
p911
I1226
sS'\xf0\x9f\x98\x80'
p912
I1592
sS'\xf0\x9f\x98\x87'
p913
I2845
sS'\xf0\x9f\x98\x86'
p914
I2557
sS'\xf0\x9f\x98\x85'
p915
I1353
sS'\xf0\x9f\x98\x84'
p916
I2013
sS'\xf0\x9f\x98\xbb'
p917
I4374
sS'\xf0\x9f\x98\xb9'
p918
I5902
sS'\xf0\x9f\x98\xb3'
p919
I1374
sS'\xf0\x9f\x98\xb1'
p920
I2727
sS'\xf0\x9f\x98\xb0'
p921
I5499
sS'\xf0\x9f\x98\xb7'
p922
I5216
sS'\xf0\x9f\x98\xb4'
p923
I3219
sS'\xf0\x9f\x98\xab'
p924
I3004
sS'\xf0\x9f\x98\xaa'
p925
I2784
sS'\xf0\x9f\x98\xa9'
p926
I729
sS'marriage'
p927
I3071
sS'\xf0\x9f\x98\xad'
p928
I409
sS'\xf0\x9f\x98\xac'
p929
I1738
sS'\xf0\x9f\x98\xa3'
p930
I5809
sS'\xf0\x9f\x98\xa2'
p931
I1532
sS'\xf0\x9f\x98\xa1'
p932
I2631
sS'\xf0\x9f\x98\xa5'
p933
I5149
sS'\xf0\x9f\x98\xa4'
p934
I3620
sS'fights'
p935
I4244
sS'sell'
p936
I1159
sS'self'
p937
I1047
sS'also'
p938
I146
sS'analogy'
p939
I4309
sS'play'
p940
I251
sS'brooklyn'
p941
I1276
sS'plan'
p942
I671
sS'accepting'
p943
I5083
sS'understands'
p944
I4965
sS'sometimes'
p945
I701
sS'cover'
p946
I842
sS'tpp'
p947
I5757
sS'microsoft'
p948
I5973
sS'ugh'
p949
I670
sS'golf'
p950
I3215
sS'gold'
p951
I1385
sS'session'
p952
I1943
sS'impact'
p953
I2488
sS'sayin'
p954
I3871
sS'writes'
p955
I4467
sS'writer'
p956
I3197
sS'failed'
p957
I1626
sS'wayne'
p958
I5060
sS'factor'
p959
I3851
sS'giants'
p960
I965
sS'banned'
p961
I3102
sS'sunny'
p962
I4597
sS"they'd"
p963
I3099
sS'actress'
p964
I5392
sS'reporters'
p965
I2960
sS'distraction'
p966
I5290
sS'enemy'
p967
I3652
sS'progressive'
p968
I3860
sS'cry'
p969
I925
sS'ivanka'
p970
I4933
sS'river'
p971
I3765
sS'insane'
p972
I1357
sS'set'
p973
I594
sS'creator'
p974
I5612
sS'startup'
p975
I3850
sS'sex'
p976
I980
sS'see'
p977
I81
sS'sec'
p978
I3064
sS'sea'
p979
I2690
sS'shower'
p980
I2605
sS'#'
p981
I2020
sS'don\xe2\x80\x99t'
p982
I984
sS'movie'
p983
I522
sS'currently'
p984
I955
sS',\xe2\x80\xa6'
p985
I4879
sS'nope'
p986
I736
sS'monsters'
p987
I5887
sS'compliment'
p988
I3552
sS'europe'
p989
I2385
sS'incident'
p990
I4449
sS'last'
p991
I158
sS'thot'
p992
I5888
sS'barely'
p993
I1539
sS'connection'
p994
I2506
sS'retarded'
p995
I3876
sS'let'
p996
I224
sS'whole'
p997
I385
sS'load'
p998
I3805
sS'\xe2\x98\xba'
p999
I799
sS'drunk'
p1000
I950
sS'loan'
p1001
I5280
sS'community'
p1002
I991
sS'coincidence'
p1003
I4454
sS'))'
p1004
I4482
sS'agents'
p1005
I4973
sS'church'
p1006
I2248
sS'belt'
p1007
I4178
sS'devil'
p1008
I3199
sS'filth'
p1009
I4940
sS'\xe2\x98\x9e'
p1010
I2226
sS'hitting'
p1011
I2056
sS'firm'
p1012
I5195
sS'sweetheart'
p1013
I5463
sS'champion'
p1014
I3653
sS'fire'
p1015
I590
sS"what's"
p1016
I239
sS'fund'
p1017
I2790
sS'races'
p1018
I5688
sS'awake'
p1019
I3112
sS"what'd"
p1020
I5267
sS'mlb'
p1021
I5387
sS'reliable'
p1022
I5732
sS'budget'
p1023
I3461
sS'admire'
p1024
I5621
sS'receive'
p1025
I3373
sS'pressed'
p1026
I5914
sS'error'
p1027
I2873
sS'kissing'
p1028
I5395
sS'pound'
p1029
I5178
sS'hoping'
p1030
I1015
sS'backing'
p1031
I4321
sS'owes'
p1032
I4580
sS'chase'
p1033
I3372
sS'funny'
p1034
I397
sS'raiders'
p1035
I2767
sS'rules'
p1036
I1558
sS'defeat'
p1037
I2996
sS'alert'
p1038
I2267
sS'viewing'
p1039
I4523
sS'levels'
p1040
I3540
sS'recent'
p1041
I1814
sS'kno'
p1042
I4044
sS'surrogate'
p1043
I4522
sS'\xf0\x9f\xa4\x94\xf0\x9f\xa4\x94'
p1044
I3315
sS'maker'
p1045
I4680
sS'person'
p1046
I350
sS'kelly'
p1047
I2254
sS'tim'
p1048
I1715
sS'lester'
p1049
I1180
sS'stunt'
p1050
I5864
sS'readers'
p1051
I5785
sS'rangers'
p1052
I4992
sS'parents'
p1053
I1206
sS'location'
p1054
I1663
sS'crying'
p1055
I854
sS'surprised'
p1056
I873
sS'australia'
p1057
I4098
sS'victims'
p1058
I2090
sS'emergency'
p1059
I2976
sS'demands'
p1060
I5553
sS'couple'
p1061
I796
sS'wives'
p1062
I5328
sS'shitty'
p1063
I1979
sS'suffering'
p1064
I4426
sS'projects'
p1065
I3657
sS'd'
p1066
I1037
sS'continue'
p1067
I1271
sS'senate'
p1068
I3403
sS'spring'
p1069
I3178
sS'b4'
p1070
I3527
sS'mighty'
p1071
I5137
sS'sight'
p1072
I3914
sS'curious'
p1073
I1434
sS'sheesh'
p1074
I5554
sS'and/or'
p1075
I4257
sS'religion'
p1076
I2029
sS'dating'
p1077
I2763
sS'be'
p1078
I22
sS'bf'
p1079
I3899
sS'bb'
p1080
I2554
sS'bc'
p1081
I504
sS'agreement'
p1082
I5079
sS'bk'
p1083
I4716
sS'nowhere'
p1084
I2864
sS'santa'
p1085
I2656
sS'bs'
p1086
I1660
sS'by'
p1087
I71
sS'anything'
p1088
I289
sS'netflix'
p1089
I1412
sS'deserves'
p1090
I2153
sS'clinton'
p1091
I202
sS'colorado'
p1092
I4694
sS'garbage'
p1093
I1410
sS'terrorists'
p1094
I1998
sS'into'
p1095
I191
sS'appropriate'
p1096
I3024
sS'lebron'
p1097
I5604
sS'spam'
p1098
I4705
sS'spending'
p1099
I2266
sS'specifically'
p1100
I3777
sS'custom'
p1101
I3711
sS'surrogates'
p1102
I5154
sS'suit'
p1103
I2074
sS':'
p1104
I37
sS'opens'
p1105
I3662
sS'elsewhere'
p1106
I5605
sS'jewish'
p1107
I1760
sS'poster'
p1108
I3669
sS'pastor'
p1109
I5239
sS't-shirt'
p1110
I4809
sS'link'
p1111
I656
sS'line'
p1112
I547
sS'posted'
p1113
I1123
sS'up'
p1114
I47
sS'us'
p1115
I117
sS'ur'
p1116
I307
sS'um'
p1117
I1448
sS'slander'
p1118
I4434
sS'un'
p1119
I2052
sS'uh'
p1120
I1570
sS'uk'
p1121
I2232
sS'alarm'
p1122
I3701
sS'yelled'
p1123
I5552
sS'chad'
p1124
I4091
sS'likewise'
p1125
I4958
sS'influence'
p1126
I3238
sS'starbucks'
p1127
I2921
sS'chat'
p1128
I1237
sS'thugs'
p1129
I4871
sS'codes'
p1130
I4796
sS'points'
p1131
I874
sS'actors'
p1132
I4620
sS'robots'
p1133
I5977
sS'sides'
p1134
I2830
sS'ago'
p1135
I432
sS'lane'
p1136
I3207
sS'land'
p1137
I1647
sS'texted'
p1138
I4322
sS'age'
p1139
I1184
sS'walked'
p1140
I2345
sS'hella'
p1141
I956
sS'oracle'
p1142
I4323
sS'fresh'
p1143
I1704
sS'hello'
p1144
I1044
sS'essay'
p1145
I3281
sS'code'
p1146
I1203
sS'scratch'
p1147
I4617
sS'results'
p1148
I2023
sS'existing'
p1149
I4670
sS'legal'
p1150
I1573
sS'freakin'
p1151
I4213
sS'chillin'
p1152
I5853
sS'seemed'
p1153
I2521
sS'concerned'
p1154
I2068
sS'young'
p1155
I674
sS'send'
p1156
I380
sS'dislike'
p1157
I4515
sS'tequila'
p1158
I5755
sS'resources'
p1159
I4092
sS'garden'
p1160
I3422
sS'torture'
p1161
I5771
sS'continues'
p1162
I2349
sS'sexist'
p1163
I2963
sS'animals'
p1164
I2430
sS'continued'
p1165
I4880
sS'wipe'
p1166
I5689
sS'magic'
p1167
I1661
sS'experiencing'
p1168
I3075
sS'marry'
p1169
I4023
sS'gettin'
p1170
I4729
sS"they've"
p1171
I2043
sS'fewer'
p1172
I5329
sS'anxious'
p1173
I5975
sS'race'
p1174
I766
sS'tru'
p1175
I5016
sS'pledge'
p1176
I5563
sS'sexism'
p1177
I5568
sS'video'
p1178
I275
sS'odd'
p1179
I2857
sS'victor'
p1180
I2748
sS'sweaty'
p1181
I5584
sS'indian'
p1182
I2919
sS'twins'
p1183
I4392
sS'bird'
p1184
I2839
sS'led'
p1185
I3107
sS'lee'
p1186
I3582
sS'leg'
p1187
I2470
sS'alt-right'
p1188
I5291
sS'punch'
p1189
I2598
sS'leo'
p1190
I5639
sS'les'
p1191
I5978
sS'poverty'
p1192
I5084
sS'invented'
p1193
I3583
sS'great'
p1194
I95
sS'engage'
p1195
I5593
sS'technical'
p1196
I5052
sS'involved'
p1197
I1641
sS'survey'
p1198
I4379
sS'cousins'
p1199
I4097
sS'popcorn'
p1200
I4283
sS'opinion'
p1201
I964
sS'residents'
p1202
I5139
sS'makes'
p1203
I301
sS'explain'
p1204
I999
sS'thats'
p1205
I481
sS'siri'
p1206
I5303
sS'dumbest'
p1207
I4331
sS'tools'
p1208
I3643
sS'standing'
p1209
I1682
sS'confidence'
p1210
I3783
sS'certificate'
p1211
I4191
sS'illegal'
p1212
I1737
sS'theme'
p1213
I2021
sS'next'
p1214
I172
sS'doubt'
p1215
I1051
sS'rick'
p1216
I4162
sS'babe'
p1217
I1244
sS'carrying'
p1218
I4774
sS'baby'
p1219
I460
sS'charity'
p1220
I1955
sS'customer'
p1221
I2472
sS'balls'
p1222
I2015
sS'practicing'
p1223
I5889
sS'this'
p1224
I18
sS'challenge'
p1225
I1791
sS'\xf0\x9f\x98\x8d\xf0\x9f\x98\x8d\xf0\x9f\x98\x8d'
p1226
I3120
sS'thin'
p1227
I4546
sS'process'
p1228
I1452
sS'lock'
p1229
I2769
sS'pieces'
p1230
I3132
sS'high'
p1231
I459
sS'slip'
p1232
I5937
sS'destroying'
p1233
I4140
sS'delay'
p1234
I3997
sS'animal'
p1235
I2596
sS'comedy'
p1236
I2364
sS'establishment'
p1237
I3587
sS'blocks'
p1238
I2987
sS'tied'
p1239
I3588
sS'pigs'
p1240
I5500
sS'fits'
p1241
I3304
sS'ties'
p1242
I4566
sS'realized'
p1243
I1589
sS'counter'
p1244
I4033
sS'robot'
p1245
I3035
sS'allow'
p1246
I1887
sS'classy'
p1247
I3455
sS'houston'
p1248
I3113
sS'producer'
p1249
I5538
sS'mute'
p1250
I4093
sS'move'
p1251
I552
sS'produced'
p1252
I4589
sS'warren'
p1253
I3370
sS'perfect'
p1254
I543
sS'degrees'
p1255
I2700
sS'2015'
p1256
I2577
sS'2014'
p1257
I2658
sS'2017'
p1258
I1665
sS'2016'
p1259
I665
sS'2011'
p1260
I4232
sS'2010'
p1261
I5720
sS'2013'
p1262
I3601
sS'2012'
p1263
I3286
sS'docs'
p1264
I4101
sS'bat'
p1265
I3747
sS'snake'
p1266
I3030
sS'legendary'
p1267
I4502
sS'cage'
p1268
I4966
sS'realize'
p1269
I933
sS'presidential'
p1270
I714
sS'intelligent'
p1271
I3732
sS'sniffing'
p1272
I2874
sS'truth'
p1273
I644
sS'accounts'
p1274
I2324
sS'glasses'
p1275
I2197
sS'mets'
p1276
I1166
sS'doing'
p1277
I222
sS'society'
p1278
I2785
sS'books'
p1279
I1405
sS'witness'
p1280
I3590
sS"'"
p1281
I94
sS'hilarious'
p1282
I1204
sS'shut'
p1283
I787
sS'grilled'
p1284
I4926
sS'surely'
p1285
I3125
sS'collection'
p1286
I2145
sS'craving'
p1287
I3658
sS'scary'
p1288
I1017
sS'could'
p1289
I155
sS'david'
p1290
I1320
sS'davis'
p1291
I4131
sS'scare'
p1292
I4125
sS'blown'
p1293
I2909
sS'scene'
p1294
I1274
sS'owned'
p1295
I2746
sS'alleged'
p1296
I4657
sS'owner'
p1297
I3626
sS'blows'
p1298
I3722
sS'fascinating'
p1299
I3571
sS'los'
p1300
I4451
sS'festival'
p1301
I2664
sS'system'
p1302
I869
sS'painful'
p1303
I3354
sS'interests'
p1304
I3646
sS'enforcement'
p1305
I2866
sS'stomach'
p1306
I3157
sS'stars'
p1307
I2350
sS'shorts'
p1308
I3341
sS'gotcha'
p1309
I3640
sS'depressing'
p1310
I3641
sS'elite'
p1311
I3133
sS'gotchu'
p1312
I5988
sS'steel'
p1313
I5529
sS'bother'
p1314
I2294
sS'gays'
p1315
I3733
sS'imho'
p1316
I5826
sS'false'
p1317
I1235
sS'partnership'
p1318
I5772
sS'spelled'
p1319
I4028
sS'tonight'
p1320
I197
sS'defending'
p1321
I3267
sS'clearly'
p1322
I837
sS'over-prepared'
p1323
I5338
sS'studying'
p1324
I3799
sS'babes'
p1325
I5206
sS'soap'
p1326
I5503
sS';-)'
p1327
I1830
sS'doug'
p1328
I5467
sS'courtesy'
p1329
I4171
sS'device'
p1330
I2421
sS'segment'
p1331
I5017
sS'hypocrite'
p1332
I5989
sS'stronger'
p1333
I3416
sS'thanksgiving'
p1334
I4380
sS'face'
p1335
I408
sS"you'll"
p1336
I631
sS'painting'
p1337
I3884
sS'fact'
p1338
I464
sS'lmaoo'
p1339
I1529
sS'assholes'
p1340
I4141
sS'bring'
p1341
I471
sS'bikes'
p1342
I4941
sS'rough'
p1343
I2230
sS'decade'
p1344
I4446
sS'podcast'
p1345
I1438
sS'jay'
p1346
I2327
sS'should'
p1347
I103
sS'terminal'
p1348
I4290
sS'jam'
p1349
I3050
sS'tape'
p1350
I3114
sS'riding'
p1351
I3158
sS'hope'
p1352
I163
sS'meant'
p1353
I748
sS'insight'
p1354
I5030
sS'handle'
p1355
I1230
sS'sweetie'
p1356
I4516
sS'listened'
p1357
I2570
sS'means'
p1358
I528
sS'\xf0\x9f\x98\x82\xf0\x9f\x98\x82\xf0\x9f\x98\x82\xf0\x9f\x98\x82\xf0\x9f\x98\x82\xf0\x9f\x98\x82'
p1359
I5464
sS'familiar'
p1360
I2703
sS'\xf0\x9f\x94\xa5'
p1361
I1698
sS'lucky'
p1362
I942
sS'\xf0\x9f\x94\xb4'
p1363
I5282
sS'=)'
p1364
I5654
sS'smash'
p1365
I4835
sS'h'
p1366
I2161
sS'rapper'
p1367
I3606
sS'taxes'
p1368
I995
sS'reid'
p1369
I4891
sS'default'
p1370
I5625
sS'stuff'
p1371
I448
sS'!?!'
p1372
I5180
sS'ohio'
p1373
I1917
sS'guessing'
p1374
I2456
sS'btw'
p1375
I908
sS'frame'
p1376
I4073
sS'!!!!'
p1377
I360
sS'travis'
p1378
I4949
sS'packed'
p1379
I4318
sS'wire'
p1380
I5281
sS'destiny'
p1381
I4109
sS'insulting'
p1382
I3924
sS'nuclear'
p1383
I2803
sS'email'
p1384
I548
sS'keynote'
p1385
I5070
sS'lawsuit'
p1386
I4993
sS'staring'
p1387
I5292
sS'figured'
p1388
I1969
sS'invited'
p1389
I2379
sS'drug'
p1390
I2428
sS'rams'
p1391
I4725
sS'etc'
p1392
I1185
sS'figures'
p1393
I4408
sS'trumps'
p1394
I1909
sS'co'
p1395
I3136
sS'cc'
p1396
I916
sS'ca'
p1397
I2106
sS'cd'
p1398
I5828
sS'oakland'
p1399
I1802
sS'admin'
p1400
I5348
sS'apologize'
p1401
I2371
sS'drank'
p1402
I4699
sS'hottest'
p1403
I4269
sS'waste'
p1404
I1635
sS'hateful'
p1405
I4146
sS'atlanta'
p1406
I3563
sS'podcasts'
p1407
I5514
sS'hahaha'
p1408
I718
sS'rigged'
p1409
I2686
sS'va'
p1410
I4836
sS'surprisingly'
p1411
I5414
sS'vp'
p1412
I4029
sS'vr'
p1413
I4111
sS'vs'
p1414
I651
sS'tattoo'
p1415
I2309
sS'denial'
p1416
I5071
sS'matthew'
p1417
I5339
sS'digging'
p1418
I4326
sS'android'
p1419
I2764
sS'phi'
p1420
I5640
sS'ball'
p1421
I960
sS'drink'
p1422
I750
sS'upon'
p1423
I2502
sS'dust'
p1424
I5196
sS'identity'
p1425
I4654
sS'off'
p1426
I150
sS'audio'
p1427
I2938
sS'drawing'
p1428
I3371
sS'newest'
p1429
I4629
sS'kiss'
p1430
I2388
sS'less'
p1431
I530
sS'moments'
p1432
I2231
sS'paul'
p1433
I1323
sS'web'
p1434
I1590
sS'generous'
p1435
I5829
sS'let\xe2\x80\x99s'
p1436
I4284
sS'transparent'
p1437
I5501
sS'arrest'
p1438
I3904
sS'crack'
p1439
I2410
sS'increased'
p1440
I5854
sS'government'
p1441
I1170
sS'checking'
p1442
I1705
sS'cruz'
p1443
I1403
sS'five'
p1444
I1364
sS'desk'
p1445
I3406
sS'nvm'
p1446
I2855
sS'password'
p1447
I4398
sS'fools'
p1448
I4350
sS'emma'
p1449
I5862
sS'bigotry'
p1450
I4356
sS'garage'
p1451
I5465
sS'become'
p1452
I840
sS'emmy'
p1453
I4332
sS'replacement'
p1454
I5486
sS'amendment'
p1455
I2668
sS'footage'
p1456
I2831
sS'choosing'
p1457
I5622
sS'ballot'
p1458
I3986
sS'literally'
p1459
I318
sS'avoid'
p1460
I2217
sS'does'
p1461
I161
sS'passion'
p1462
I3300
sS'blowing'
p1463
I3610
sS'schedule'
p1464
I1719
sS'pressure'
p1465
I2027
sS'stage'
p1466
I1187
sS'sister'
p1467
I1297
sS'lifestyle'
p1468
I5959
sS'asks'
p1469
I2710
sS'chrome'
p1470
I5168
sS'documentary'
p1471
I3892
sS'software'
p1472
I2420
sS'letters'
p1473
I4735
sS'pussy'
p1474
I1801
sS'commitment'
p1475
I5979
sS'crooked'
p1476
I2051
sS'hehe'
p1477
I2779
sS'housing'
p1478
I2032
sS'spots'
p1479
I4300
sS'stamina'
p1480
I3254
sS'bump'
p1481
I4076
sS'yrs'
p1482
I2163
sS'naturally'
p1483
I5721
sS'function'
p1484
I4150
sS'frisk'
p1485
I2846
sS'fasho'
p1486
I5758
sS'suits'
p1487
I4468
sS'delivery'
p1488
I3512
sS'construction'
p1489
I3931
sS'count'
p1490
I1061
sS'places'
p1491
I1407
sS'official'
p1492
I1201
sS'smooth'
p1493
I3966
sS'excitement'
p1494
I5747
sS'convince'
p1495
I3529
sS'\xc2\xb0'
p1496
I5534
sS'problem'
p1497
I515
sS'irish'
p1498
I4123
sS'recognize'
p1499
I3147
sS'compared'
p1500
I2759
sS'deadly'
p1501
I5189
sS'lately'
p1502
I1915
sS'details'
p1503
I1178
sS'illusion'
p1504
I5473
sS'repeat'
p1505
I2396
sS'monday'
p1506
I836
sS'oppression'
p1507
I5444
sS'chance'
p1508
I627
sS'badass'
p1509
I4015
sS'dolphins'
p1510
I3448
sS'ghost'
p1511
I2305
sS'rule'
p1512
I1932
sS'lift'
p1513
I4861
sS'compete'
p1514
I5515
sS'rep'
p1515
I4186
sS'inning'
p1516
I4108
sS'saves'
p1517
I5181
sS'yikes'
p1518
I2636
sS'integrity'
p1519
I3841
sS'relationships'
p1520
I3740
sS'votes'
p1521
I1514
sS'voter'
p1522
I2591
sS'bike'
p1523
I2133
sS'voted'
p1524
I1843
sS'worth'
p1525
I605
sS"women's"
p1526
I3667
sS'tickets'
p1527
I769
sS"we'll"
p1528
I648
sS'upload'
p1529
I5672
sS'red'
p1530
I642
sS'phones'
p1531
I2297
sS'chef'
p1532
I4894
sS'7th'
p1533
I2634
sS'established'
p1534
I5673
sS'+'
p1535
I457
sS'above'
p1536
I1689
sS'neat'
p1537
I4185
sS'officially'
p1538
I1758
sS'told'
p1539
I499
sS'protection'
p1540
I3607
sS'celebration'
p1541
I4182
sS'kudos'
p1542
I5320
sS'daughter'
p1543
I1543
sS'items'
p1544
I5085
sS'employees'
p1545
I3375
sS'itunes'
p1546
I1986
sS'smoke'
p1547
I1769
sS'stressed'
p1548
I5155
sS'aka'
p1549
I2085
sS'secure'
p1550
I5376
sS'highly'
p1551
I1871
sS'bro'
p1552
I268
sS'insta'
p1553
I4423
sS'thursday'
p1554
I1101
sS'total'
p1555
I1416
sS'brb'
p1556
I5224
sS'bra'
p1557
I4458
sS'sarah'
p1558
I3715
sS'plot'
p1559
I3307
sS'palestinian'
p1560
I4797
sS'sweater'
p1561
I3734
sS'indians'
p1562
I5578
sS'negative'
p1563
I2000
sS'insult'
p1564
I2649
sS'haha'
p1565
I276
sS'award'
p1566
I2261
sS'aware'
p1567
I2162
sS'backwards'
p1568
I4387
sS'blocking'
p1569
I3491
sS"must've"
p1570
I4902
sS'word'
p1571
I465
sS'wore'
p1572
I2485
sS'jess'
p1573
I4640
sS'work'
p1574
I152
sS'ik'
p1575
I4581
sS'theories'
p1576
I4362
sS'cuddle'
p1577
I4531
sS'tinder'
p1578
I3915
sS'era'
p1579
I2582
sS'transparency'
p1580
I5173
sS'india'
p1581
I2620
sS'recovery'
p1582
I4598
sS'provide'
p1583
I2414
sS'nuts'
p1584
I1874
sS'rookie'
p1585
I4013
sS'moron'
p1586
I2071
sS'beach'
p1587
I1465
sS'pizza'
p1588
I1053
sS'bday'
p1589
I1220
sS'after'
p1590
I170
sS'lab'
p1591
I3728
sS'lay'
p1592
I3473
sS'law'
p1593
I687
sS'......'
p1594
I1311
sS'appreciate'
p1595
I668
sS'greek'
p1596
I5980
sS'green'
p1597
I1102
sS'fan'
p1598
I479
sS'order'
p1599
I784
sS'office'
p1600
I798
sS'consent'
p1601
I4659
sS'awful'
p1602
I1098
sS'japan'
p1603
I2774
sS'mayor'
p1604
I1882
sS'bombing'
p1605
I2242
sS'somewhere'
p1606
I1205
sS'highlights'
p1607
I4080
sS'christie'
p1608
I2092
sS'denver'
p1609
I4686
sS'production'
p1610
I2786
sS'belly'
p1611
I5457
sS'eventually'
p1612
I2745
sS'them'
p1613
I98
sS'safe'
p1614
I589
sS'break'
p1615
I689
sS'band'
p1616
I1293
sS'bang'
p1617
I4767
sS'shameful'
p1618
I4325
sS'they'
p1619
I43
sS'jesus'
p1620
I921
sS'humanity'
p1621
I2560
sS'bank'
p1622
I1865
sS'bread'
p1623
I2635
sS'whoop'
p1624
I5623
sS'slavery'
p1625
I3973
sS'rocks'
p1626
I3358
sS'reasonable'
p1627
I2318
sS'$50'
p1628
I5096
sS'feeds'
p1629
I4258
sS'carlos'
p1630
I5996
sS'crimes'
p1631
I2910
sS'hosted'
p1632
I5594
sS'!!!!!'
p1633
I800
sS'logo'
p1634
I3345
sS'network'
p1635
I1599
sS'cameras'
p1636
I4021
sS'hooked'
p1637
I5018
sS'daniel'
p1638
I4218
sS'medicine'
p1639
I4722
sS'veto'
p1640
I5453
sS'standard'
p1641
I2178
sS'admits'
p1642
I4647
sS'vets'
p1643
I4872
sS"people's"
p1644
I2184
sS'soundcloud'
p1645
I5585
sS'mvp'
p1646
I5081
sS'dammit'
p1647
I3578
sS'created'
p1648
I1511
sS'refugee'
p1649
I3229
sS'ordering'
p1650
I5674
sS'can\xe2\x80\x99t'
p1651
I1639
sS'kim'
p1652
I2393
sS'champs'
p1653
I5960
sS'another'
p1654
I242
sS'comin'
p1655
I4875
sS'thick'
p1656
I3695
sS'dumbass'
p1657
I3459
sS'john'
p1658
I976
sS'dogs'
p1659
I1557
sS'cereal'
p1660
I5366
sS'wasted'
p1661
I3338
sS'toronto'
p1662
I4749
sS'mercy'
p1663
I4703
sS'target'
p1664
I2537
sS'jungleboy'
p1665
I2575
sS'scenes'
p1666
I3331
sS'ebay'
p1667
I5398
sS'merch'
p1668
I5703
sS'guilt'
p1669
I5293
sS'iron'
p1670
I3754
sS'hacking'
p1671
I5539
sS'powers'
p1672
I4671
sS'minus'
p1673
I4980
sS'youre'
p1674
I1755
sS'forced'
p1675
I2447
sS'strength'
p1676
I3497
sS'genuine'
p1677
I4750
sS'luxury'
p1678
I5207
sS'forces'
p1679
I3958
sS'bruce'
p1680
I2083
sS'what'
p1681
I34
sS'germany'
p1682
I3893
sS'phase'
p1683
I4931
sS'aunt'
p1684
I5916
sS'sun'
p1685
I1859
sS'voting'
p1686
I772
sS'responded'
p1687
I5491
sS'reserve'
p1688
I5157
sS'subtle'
p1689
I5722
sS'enjoyed'
p1690
I1339
sS'toast'
p1691
I4040
sS'hrs'
p1692
I4172
sS'screening'
p1693
I5571
sS'hrc'
p1694
I849
sS'personality'
p1695
I3287
sS'do'
p1696
I45
sS'dm'
p1697
I827
sS'dj'
p1698
I2925
sS'de'
p1699
I2304
sS'dc'
p1700
I2148
sS'cardinals'
p1701
I4644
sS'da'
p1702
I1591
sS'dt'
p1703
I3932
sS'dr'
p1704
I3294
sS'runs'
p1705
I2016
sS'covering'
p1706
I2629
sS'emo'
p1707
I5031
sS'w/o'
p1708
I3492
sS'steak'
p1709
I5065
sS'steal'
p1710
I2202
sS'secretary'
p1711
I2998
sS'w/'
p1712
I538
sS'depends'
p1713
I2075
sS'miserable'
p1714
I5272
sS'away'
p1715
I342
sS'gentleman'
p1716
I4183
sS'unable'
p1717
I5968
sS'props'
p1718
I3967
sS'we'
p1719
I38
sS'\xf0\x9f\xa4\x94'
p1720
I445
sS'terms'
p1721
I2992
sS'wh'
p1722
I5560
sS'wr'
p1723
I5434
sS'\xf0\x9f\x8d\xbb'
p1724
I5802
sS'cop'
p1725
I1382
sS'cos'
p1726
I4569
sS'cow'
p1727
I4717
sS'ill'
p1728
I987
sS'brad'
p1729
I2484
sS'com'
p1730
I3933
sS'coo'
p1731
I5641
sS'ily'
p1732
I2142
sS'tough'
p1733
I1021
sS'tons'
p1734
I3325
sS'tony'
p1735
I2787
sS'speak'
p1736
I848
sS'petty'
p1737
I3376
sS'hashtags'
p1738
I5776
sS'families'
p1739
I2033
sS'beloved'
p1740
I5259
sS'relaxing'
p1741
I5187
sS'attacked'
p1742
I2612
sS'fest'
p1743
I3787
sS'east'
p1744
I1127
sS'publicly'
p1745
I4245
sS'air'
p1746
I947
sS'applies'
p1747
I5890
sS'aid'
p1748
I3445
sS'property'
p1749
I2904
sS'launched'
p1750
I5938
sS'mistake'
p1751
I1673
sS'sticker'
p1752
I3729
sS'confirmed'
p1753
I2322
sS'perform'
p1754
I2841
sS'jerry'
p1755
I3723
sS'bunny'
p1756
I4837
sS'arent'
p1757
I4695
sS'wheel'
p1758
I4270
sS'independent'
p1759
I4022
sS'raid'
p1760
I5113
sS'blames'
p1761
I4974
sS'hang'
p1762
I1019
sS'evil'
p1763
I1359
sS'hand'
p1764
I743
sS'producers'
p1765
I3650
sS'blamed'
p1766
I5675
sS'kept'
p1767
I1627
sS'scenario'
p1768
I5790
sS'thx'
p1769
I1100
sS'congrats'
p1770
I472
sS'kyle'
p1771
I4151
sS'tho'
p1772
I230
sS'hispanic'
p1773
I3467
sS'contact'
p1774
I1546
sS'the'
p1775
I6002
sS'musical'
p1776
I3308
sS"she'll"
p1777
I2728
sS'gods'
p1778
I3454
sS'quotes'
p1779
I3779
sS'thanks'
p1780
I83
sS'victim'
p1781
I1926
sS'jose'
p1782
I1960
sS'hills'
p1783
I5029
sS'photographer'
p1784
I4583
sS'josh'
p1785
I2356
sS'shout'
p1786
I1839
sS'spread'
p1787
I2024
sS'board'
p1788
I1521
sS'gregg'
p1789
I5313
sS'rnc'
p1790
I5386
sS'boxes'
p1791
I5346
sS'designers'
p1792
I3784
sS'cooler'
p1793
I3894
sS'tebow'
p1794
I5356
sS'xbox'
p1795
I2503
sS'night'
p1796
I193
sS'security'
p1797
I1083
sS'honored'
p1798
I2252
sS'sends'
p1799
I4310
sS'born'
p1800
I1020
sS'confusing'
p1801
I3451
sS'humor'
p1802
I3621
sS'purple'
p1803
I3148
sS'phenomenal'
p1804
I5676
sS'/'
p1805
I879
sS'filming'
p1806
I4104
sS'asking'
p1807
I846
sS'?\xe2\x80\xa6'
p1808
I5197
sS'denied'
p1809
I5564
sS'juneonnabeat'
p1810
I2581
sS'beating'
p1811
I2497
sS'adorable'
p1812
I1788
sS'pls'
p1813
I852
sS'marketing'
p1814
I2426
sS'pose'
p1815
I5786
sS'plz'
p1816
I1739
sS'post'
p1817
I455
sS'months'
p1818
I724
sS'anime'
p1819
I3159
sS'wasting'
p1820
I4381
sS'pays'
p1821
I3968
sS'bound'
p1822
I4981
sS'available'
p1823
I833
sS'fight'
p1824
I616
sS'way'
p1825
I132
sS'wat'
p1826
I4899
sS'was'
p1827
I26
sS'war'
p1828
I721
sS'becoming'
p1829
I2384
sS'true'
p1830
I263
sS'responding'
p1831
I3987
sS'isis'
p1832
I1043
sS'braves'
p1833
I5504
sS'crystal'
p1834
I5541
sS'emotional'
p1835
I2098
sS'promises'
p1836
I4450
sS'tryna'
p1837
I1193
sS'evidence'
p1838
I1121
sS'promised'
p1839
I3725
sS'prayer'
p1840
I5962
sS'physical'
p1841
I2871
sS'dying'
p1842
I1228
sS'reality'
p1843
I1120
sS'interested'
p1844
I1111
sS'holding'
p1845
I1701
sS'test'
p1846
I1260
sS'scored'
p1847
I3589
sS'brothers'
p1848
I2802
sS'welcome'
p1849
I458
sS'update'
p1850
I639
sS"let's"
p1851
I324
sS'scores'
p1852
I5572
sS'cheated'
p1853
I3781
sS'together'
p1854
I435
sS'loyal'
p1855
I4427
sS'lineup'
p1856
I3065
sS'songs'
p1857
I1428
sS'concept'
p1858
I2465
sS'switched'
p1859
I4524
sS'dance'
p1860
I1277
sS'global'
p1861
I1594
sS'grateful'
p1862
I2842
sS'battle'
p1863
I2136
sS'certainly'
p1864
I1218
sS'zone'
p1865
I2457
sS'flash'
p1866
I3879
sS'terror'
p1867
I1877
sS"a's"
p1868
I5474
sS'brown'
p1869
I1420
sS'supported'
p1870
I3053
sS'\xe2\x9a\xbe\xef\xb8\x8f'
p1871
I3613
sS'vegan'
p1872
I3573
sS'vegas'
p1873
I2044
sS'trouble'
p1874
I1534
sS'blast'
p1875
I1780
sS'turns'
p1876
I1692
sS'gun'
p1877
I979
sS'p'
p1878
I1993
sS'soooo'
p1879
I2084
sS'guy'
p1880
I279
sS'upper'
p1881
I4347
sS'brave'
p1882
I3744
sS'regret'
p1883
I2997
sS'bravo'
p1884
I4988
sS'discover'
p1885
I5150
sS'cost'
p1886
I1624
sS'rapist'
p1887
I3758
sS'curse'
p1888
I5454
sS'appear'
p1889
I3885
sS'assistance'
p1890
I5182
sS'shares'
p1891
I4110
sS'shared'
p1892
I2899
sS'appeal'
p1893
I4560
sS'supporting'
p1894
I1318
sS'explosion'
p1895
I1118
sS'muslim'
p1896
I1008
sS'downloaded'
p1897
I5903
sS'redskins'
p1898
I5830
sS"hadn't"
p1899
I3591
sS'teacher'
p1900
I1950
sS'change'
p1901
I438
sS'sending'
p1902
I1429
sS'trial'
p1903
I3137
sS'usually'
p1904
I938
sS'pillow'
p1905
I5963
sS'homecoming'
p1906
I3545
sS'lmfaoooo'
p1907
I3155
sS'regardless'
p1908
I2150
sS'extra'
p1909
I1070
sS'shaming'
p1910
I5891
sS'fbi'
p1911
I1372
sS'rarely'
p1912
I3703
sS'market'
p1913
I1354
sS'prove'
p1914
I1919
sS'retweeted'
p1915
I3535
sS'angela'
p1916
I4959
sS'live'
p1917
I212
sS'bombings'
p1918
I4421
sS'entrance'
p1919
I5981
sS'club'
p1920
I959
sS'clue'
p1921
I2729
sS'graphic'
p1922
I3450
sS'douche'
p1923
I4660
sS'niggas'
p1924
I923
sS'car'
p1925
I586
sS'cap'
p1926
I3332
sS'cat'
p1927
I872
sS'hardest'
p1928
I3971
sS'can'
p1929
I55
sS'cam'
p1930
I2814
sS'cal'
p1931
I3446
sS'cab'
p1932
I5053
sS'heart'
p1933
I580
sS'dedicated'
p1934
I4077
sS'december'
p1935
I3221
sS'chip'
p1936
I2818
sS"didn't"
p1937
I164
sS'supremacy'
p1938
I5677
sS'heard'
p1939
I366
sS'clothing'
p1940
I4982
sS'productive'
p1941
I4942
sS'discussion'
p1942
I2319
sS'write'
p1943
I864
sS'economy'
p1944
I2093
sS'??'
p1945
I234
sS'product'
p1946
I1716
sS'shooter'
p1947
I4222
sS'southern'
p1948
I4060
sS'disgusted'
p1949
I4757
sS'produce'
p1950
I4552
sS'heroes'
p1951
I3745
sS'iraq'
p1952
I2191
sS'?!'
p1953
I315
sS'remember'
p1954
I354
sS'whenever'
p1955
I1866
sS'typical'
p1956
I1863
sS'tagged'
p1957
I3815
sS'serving'
p1958
I4094
sS'usc'
p1959
I5399
sS'indeed'
p1960
I1383
sS'haircut'
p1961
I4943
sS'brain'
p1962
I1130
sS'cold'
p1963
I912
sS'still'
p1964
I102
sS'birds'
p1965
I3840
sS'acknowledge'
p1966
I4661
sS'forms'
p1967
I5273
sS'window'
p1968
I2212
sS'non'
p1969
I2102
sS'introduce'
p1970
I4994
sS'half'
p1971
I606
sS'not'
p1972
I28
sS'nov'
p1973
I2715
sS'now'
p1974
I62
sS'hall'
p1975
I1952
sS'&gt;'
p1976
I364
sS'wont'
p1977
I2287
sS'january'
p1978
I3468
sS'drop'
p1979
I930
sS'entirely'
p1980
I2717
sS'trump\xe2\x80\x99s'
p1981
I2258
sS'em'
p1982
I801
sS'el'
p1983
I3948
sS'en'
p1984
I5679
sS'fired'
p1985
I2096
sS'challenged'
p1986
I5614
sS'ed'
p1987
I3251
sS'yeah'
p1988
I131
sS'replay'
p1989
I5308
sS'ex'
p1990
I2458
sS'year'
p1991
I200
sS'eu'
p1992
I4864
sS'et'
p1993
I2492
sS'ew'
p1994
I3705
sS'teams'
p1995
I1247
sS'ep'
p1996
I3100
sS'er'
p1997
I5377
sS'album'
p1998
I704
sS'shown'
p1999
I3597
sS'opened'
p2000
I2853
sS'space'
p2001
I926
sS'irony'
p2002
I3995
sS'looking'
p2003
I244
sS'fargo'
p2004
I3326
sS'shows'
p2005
I615
sS'smfh'
p2006
I4691
sS'cars'
p2007
I1770
sS'\xf0\x9f\x92\xa9'
p2008
I5105
sS'lmk'
p2009
I3066
sS'rly'
p2010
I4475
sS'\xf0\x9f\x92\xaf'
p2011
I2006
sS'marine'
p2012
I5855
sS'card'
p2013
I951
sS'care'
p2014
I468
sS'\xf0\x9f\x92\x99'
p2015
I2731
sS'\xf0\x9f\x92\x98'
p2016
I3811
sS'\xf0\x9f\x92\x9b'
p2017
I3877
sS'\xf0\x9f\x92\x9a'
p2018
I4782
sS'\xf0\x9f\x92\x9c'
p2019
I2601
sS'\xf0\x9f\x92\x9e'
p2020
I3812
sS'\xf0\x9f\x92\x93'
p2021
I4219
sS'transition'
p2022
I5437
sS'\xf0\x9f\x92\x95'
p2023
I1126
sS'\xf0\x9f\x92\x94'
p2024
I4305
sS'\xf0\x9f\x92\x97'
p2025
I2944
sS'\xf0\x9f\x92\x96'
p2026
I2137
sS'\xf0\x9f\x92\x8b'
p2027
I3096
sS'\xf0\x9f\x92\x80'
p2028
I1941
sS'blind'
p2029
I2176
sS'initial'
p2030
I5228
sS'xo'
p2031
I3456
sS'xd'
p2032
I1720
sS'yourself'
p2033
I492
sS'xx'
p2034
I3214
sS'directly'
p2035
I2843
sS'impossible'
p2036
I2455
sS'message'
p2037
I1000
sS'drove'
p2038
I4428
sS'tomorrow'
p2039
I292
sS'size'
p2040
I1443
sS'checked'
p2041
I1861
sS'silent'
p2042
I3111
sS'caught'
p2043
I1035
sS'carson'
p2044
I4005
sS'tragic'
p2045
I3803
sS'friend'
p2046
I351
sS'mostly'
p2047
I1422
sS'that'
p2048
I17
sS'pittsburgh'
p2049
I5516
sS'brains'
p2050
I4737
sS'sniffles'
p2051
I5764
sS'flowers'
p2052
I1813
sS'than'
p2053
I122
sS'television'
p2054
I3489
sS'$10'
p2055
I4117
sS'edition'
p2056
I2549
sS'apples'
p2057
I4494
sS'angel'
p2058
I2613
sS'slay'
p2059
I5649
sS'correction'
p2060
I3949
sS'slap'
p2061
I3864
sS'anger'
p2062
I4610
sS'breakfast'
p2063
I1500
sS'offering'
p2064
I3767
sS'there\xe2\x80\x99s'
p2065
I3513
sS'terrific'
p2066
I4846
sS'mr.'
p2067
I1327
sS'online'
p2068
I738
sS'begin'
p2069
I2284
sS'price'
p2070
I1143
sS'america'
p2071
I365
sS']'
p2072
I1236
sS'michelle'
p2073
I2615
sS'forever'
p2074
I889
sS'dream'
p2075
I939
sS'sunset'
p2076
I3845
sS'slaves'
p2077
I4752
sS'professional'
p2078
I2566
sS'german'
p2079
I4246
sS'discovered'
p2080
I3208
sS'fifth'
p2081
I5422
sS'realizing'
p2082
I4851
sS'aint'
p2083
I1723
sS'upgrade'
p2084
I3216
sS'title'
p2085
I1580
sS'saints'
p2086
I4319
sS'only'
p2087
I105
sS'sierra'
p2088
I5123
sS'pumpkin'
p2089
I1967
sS'sooo'
p2090
I2296
sS'truly'
p2091
I927
sS'cannot'
p2092
I812
sS'celebrate'
p2093
I2086
sS'leather'
p2094
I5505
sS'bigly'
p2095
I5952
sS'losers'
p2096
I4399
sS'amanda'
p2097
I5939
sS'husband'
p2098
I1505
sS'concert'
p2099
I1488
sS'physically'
p2100
I4188
sS'ends'
p2101
I2018
sS'elected'
p2102
I1730
sS'unfit'
p2103
I4435
sS'asleep'
p2104
I2295
sS'hoes'
p2105
I3097
sS'sport'
p2106
I3700
sS'concern'
p2107
I2782
sS'israeli'
p2108
I4231
sS'?!?'
p2109
I1400
sS'3'
p2110
I232
sS'?!!'
p2111
I4349
sS'between'
p2112
I546
sS'developer'
p2113
I3217
sS'notice'
p2114
I1394
sS'blame'
p2115
I1016
sS'hurts'
p2116
I1693
sS'comeback'
p2117
I4034
sS'talented'
p2118
I2360
sS'overrated'
p2119
I3844
sS'comey'
p2120
I3432
sS'wheels'
p2121
I5655
sS'delete'
p2122
I1440
sS'comes'
p2123
I618
sS'nearby'
p2124
I5740
sS'madness'
p2125
I4533
sS'jeans'
p2126
I3524
sS'learning'
p2127
I1490
sS'liberal'
p2128
I1305
sS'cares'
p2129
I1144
sS'informed'
p2130
I4723
sS'developing'
p2131
I3757
sS'these'
p2132
I140
sS'trick'
p2133
I2929
sS'editorial'
p2134
I4517
sS'scum'
p2135
I4024
sS'coolest'
p2136
I5321
sS'bias'
p2137
I2160
sS'embrace'
p2138
I4357
sS'heels'
p2139
I5831
sS'somebody'
p2140
I1406
sS'stickers'
p2141
I4084
sS'ship'
p2142
I1989
sS'worry'
p2143
I985
sS'develop'
p2144
I5748
sS'media'
p2145
I395
sS'ya'
p2146
I336
sS'followers'
p2147
I1248
sS'\xf0\x9f\x99\x8f\xf0\x9f\x8f\xbb'
p2148
I4479
sS'document'
p2149
I5789
sS'\xf0\x9f\x99\x8f\xf0\x9f\x8f\xbd'
p2150
I4333
sS'\xf0\x9f\x99\x8f\xf0\x9f\x8f\xbc'
p2151
I3795
sS'\xf0\x9f\x99\x8f\xf0\x9f\x8f\xbe'
p2152
I4599
sS'finish'
p2153
I1270
sS'closest'
p2154
I4724
sS'fruit'
p2155
I4243
sS'favorites'
p2156
I3169
sS'mentally'
p2157
I3452
sS'theater'
p2158
I3564
sS'charges'
p2159
I2966
sS'constitutional'
p2160
I4363
sS'gain'
p2161
I3222
sS'charged'
p2162
I2376
sS'noah'
p2163
I5562
sS'valuable'
p2164
I5691
sS'touch'
p2165
I1258
sS'speed'
p2166
I2352
sS'ps4'
p2167
I2737
sS'death'
p2168
I865
sS'thinking'
p2169
I392
sS'desktop'
p2170
I5982
sS'verse'
p2171
I4885
sS'treatment'
p2172
I3537
sS'role'
p2173
I1799
sS'struck'
p2174
I5983
sS'real'
p2175
I199
sS'read'
p2176
I249
sS'psa'
p2177
I5312
sS'gonna'
p2178
I190
sS'early'
p2179
I549
sS'listening'
p2180
I804
sS'using'
p2181
I500
sS'lady'
p2182
I1052
sS'ruled'
p2183
I5252
sS'fortune'
p2184
I5815
sS'pounds'
p2185
I3453
sS'collective'
p2186
I4838
sS'endorses'
p2187
I3822
sS'benefit'
p2188
I3228
sS't'
p2189
I1078
sS'endorsed'
p2190
I2884
sS'exposed'
p2191
I2545
sS'eddie'
p2192
I4830
sS'viral'
p2193
I5607
sS'recorded'
p2194
I4184
sS'conservative'
p2195
I2443
sS'millennial'
p2196
I4164
sS'business'
p2197
I626
sS'asap'
p2198
I1922
sS'equivalent'
p2199
I5492
sS'^_^'
p2200
I5403
sS'exciting'
p2201
I1826
sS'throw'
p2202
I884
sS'comparison'
p2203
I3347
sS'central'
p2204
I2121
sS'chop'
p2205
I5746
sS'journey'
p2206
I1827
sS'wolf'
p2207
I3862
sS"isn't"
p2208
I267
sS'backup'
p2209
I3908
sS'protests'
p2210
I2799
sS'snapchat'
p2211
I1113
sS'heated'
p2212
I5915
sS'elementary'
p2213
I5741
sS'your'
p2214
I32
sS'log'
p2215
I4618
sS'prepare'
p2216
I3680
sS'area'
p2217
I868
sS'assumed'
p2218
I4823
sS'lol'
p2219
I51
sS'start'
p2220
I309
sS'cats'
p2221
I2002
sS'low'
p2222
I788
sS'lot'
p2223
I300
sS'allergic'
p2224
I5964
sS'jones'
p2225
I2517
sS'pitcher'
p2226
I5294
sS'delayed'
p2227
I4706
sS'trying'
p2228
I291
sS'hire'
p2229
I2507
sS'fraud'
p2230
I1736
sS'stanford'
p2231
I3433
sS'comics'
p2232
I4311
sS'bucket'
p2233
I4557
sS'describe'
p2234
I2449
sS'moved'
p2235
I1526
sS'sales'
p2236
I2750
sS'moves'
p2237
I2810
sS'nerd'
p2238
I4681
sS'credibility'
p2239
I5680
sS'valid'
p2240
I3359
sS'you'
p2241
I8
sS"tonight's"
p2242
I1457
sS'poor'
p2243
I792
sS'poop'
p2244
I5033
sS'podium'
p2245
I5345
sS'peak'
p2246
I3773
sS'coverage'
p2247
I1751
sS'pool'
p2248
I2828
sS'building'
p2249
I957
sS'3-1'
p2250
I5801
sS'3-0'
p2251
I4590
sS'corey'
p2252
I2882
sS'pointing'
p2253
I3916
sS'month'
p2254
I678
sS'messy'
p2255
I5810
sS'religious'
p2256
I3418
sS'carpet'
p2257
I3837
sS'referring'
p2258
I2057
sS'very'
p2259
I159
sS'horror'
p2260
I2094
sS'selfies'
p2261
I3348
sS'decide'
p2262
I2088
sS'heaven'
p2263
I2826
sS'--'
p2264
I486
sS'louis'
p2265
I5314
sS"i'll"
p2266
I157
sS'cookies'
p2267
I2742
sS'instagram'
p2268
I1528
sS'streets'
p2269
I2169
sS'milo'
p2270
I5905
sS'\xf0\x9f\x91\x8d\xf0\x9f\x8f\xbc'
p2271
I3996
sS'\xf0\x9f\x91\x8d\xf0\x9f\x8f\xbb'
p2272
I4320
sS'casual'
p2273
I5615
sS'bomber'
p2274
I4413
sS'emotions'
p2275
I3712
sS'learned'
p2276
I1442
sS'iran'
p2277
I3774
sS'\xf0\x9f\xa4\x97'
p2278
I1724
sS'loose'
p2279
I3469
sS'\xf0\x9f\xa4\x93'
p2280
I3560
sS'answers'
p2281
I2259
sS'tracks'
p2282
I3364
sS'strong'
p2283
I883
sS'arena'
p2284
I5778
sS'ahead'
p2285
I1116
sS'inspired'
p2286
I2262
sS'creepy'
p2287
I1946
sS'amount'
p2288
I1807
sS'advertising'
p2289
I5438
sS'family'
p2290
I476
sS'put'
p2291
I302
sS'trained'
p2292
I4960
sS'khan'
p2293
I3553
sS'takes'
p2294
I805
sS'0'
p2295
I1778
sS'turnout'
p2296
I5190
sS'\xf0\x9f\x91\x8c\xf0\x9f\x8f\xbc'
p2297
I5322
sS'\xf0\x9f\x91\x8c\xf0\x9f\x8f\xbd'
p2298
I4775
sS'\xf0\x9f\x91\x8c\xf0\x9f\x8f\xbb'
p2299
I4672
sS'taken'
p2300
I1160
sS'injury'
p2301
I2514
sS'\xf0\x9f\x99\x8c\xf0\x9f\x8f\xbe'
p2302
I5159
sS'\xf0\x9f\x99\x8c\xf0\x9f\x8f\xbc'
p2303
I3785
sS'\xf0\x9f\x99\x8c\xf0\x9f\x8f\xbd'
p2304
I4574
sS'\xf0\x9f\x99\x8c\xf0\x9f\x8f\xbb'
p2305
I5439
sS'jr.'
p2306
I2707
sS'site'
p2307
I1189
sS'excuse'
p2308
I1396
sS'broke'
p2309
I1150
sS'hurry'
p2310
I3810
sS'hardware'
p2311
I5344
sS'offended'
p2312
I3140
sS'nine'
p2313
I5080
sS'history'
p2314
I650
sS'boycott'
p2315
I4603
sS'pushed'
p2316
I3771
sS'phrase'
p2317
I3633
sS'species'
p2318
I5019
sS'stayed'
p2319
I3200
sS'fr'
p2320
I2313
sS'ft'
p2321
I1962
sS'tried'
p2322
I638
sS'rude'
p2323
I2343
sS'sneak'
p2324
I3739
sS'tries'
p2325
I3279
sS'terrorist'
p2326
I1369
sS'rudy'
p2327
I4567
sS'fl'
p2328
I4132
sS'a'
p2329
I6
sS'anytime'
p2330
I2097
sS'ego'
p2331
I5283
sS'banks'
p2332
I2892
sS'egg'
p2333
I2895
sS'photoshop'
p2334
I5476
sS'help'
p2335
I254
sS'ffs'
p2336
I5974
sS'soon'
p2337
I323
sS'held'
p2338
I2245
sS'bullpen'
p2339
I4382
sS'committee'
p2340
I4884
sS'committed'
p2341
I3121
sS'hell'
p2342
I375
sS':p'
p2343
I1242
sS'actually'
p2344
I188
sS'systems'
p2345
I4886
sS'relate'
p2346
I2705
sS'cutie'
p2347
I3746
sS'vetting'
p2348
I5409
sS"haven't"
p2349
I431
sS'fool'
p2350
I1608
sS'evening'
p2351
I1351
sS'yo'
p2352
I521
sS'food'
p2353
I512
sS'ye'
p2354
I5389
sS"you've"
p2355
I621
sS'foot'
p2356
I1982
sS'yr'
p2357
I2429
sS'yu'
p2358
I5565
sS'terrorism'
p2359
I1046
sS'growing'
p2360
I2341
sS'fully'
p2361
I2288
sS'bless'
p2362
I860
sS'stopped'
p2363
I1308
sS'trailer'
p2364
I3022
sS'heavy'
p2365
I2572
sS'blank'
p2366
I5882
sS'democrat'
p2367
I2816
sS'todd'
p2368
I3872
sS'beyond'
p2369
I1309
sS'event'
p2370
I755
sS'robert'
p2371
I2800
sS'since'
p2372
I305
sS'safety'
p2373
I2328
sS'7'
p2374
I550
sS'issue'
p2375
I666
sS'ass'
p2376
I247
sS'pun'
p2377
I4798
sS'dirt'
p2378
I4718
sS'timeline'
p2379
I2522
sS'houses'
p2380
I4334
sS'reason'
p2381
I495
sS'base'
p2382
I2269
sS'asf'
p2383
I4799
sS'ask'
p2384
I398
sS'pup'
p2385
I5158
sS'launch'
p2386
I1787
sS'terrible'
p2387
I811
sS'caption'
p2388
I3268
sS'american'
p2389
I475
sS'expecting'
p2390
I2535
sS'syria'
p2391
I2648
sS'dis'
p2392
I2711
sS'\xc2\xaf\\_(\xe3\x83\x84)_/\xc2\xaf'
p2393
I2942
sS'fucked'
p2394
I1004
sS'talked'
p2395
I1852
sS'miss'
p2396
I231
sS'horse'
p2397
I2858
sS'st.'
p2398
I3093
sS'eddy'
p2399
I3072
sS'station'
p2400
I1652
sS'scheme'
p2401
I5208
sS'banana'
p2402
I5175
sS'selling'
p2403
I1757
sS'storm'
p2404
I3538
sS'jordan'
p2405
I2699
sS'albums'
p2406
I4526
sS'grocery'
p2407
I5477
sS'grew'
p2408
I3690
sS'kindly'
p2409
I5723
sS'grey'
p2410
I4239
sS'greg'
p2411
I3634
sS'toward'
p2412
I3944
sS'charlotte'
p2413
I1290
sS'texans'
p2414
I5517
sS'wasnt'
p2415
I2879
sS'lmaooooo'
p2416
I3635
sS'randomly'
p2417
I4414
sS'juice'
p2418
I2806
sS'philly'
p2419
I2308
sS'lie'
p2420
I647
sS'tyvm'
p2421
I2911
sS'lil'
p2422
I940
sS'essentially'
p2423
I5436
sS'lin'
p2424
I5999
sS'officers'
p2425
I2367
sS'lit'
p2426
I695
sS'henny'
p2427
I5140
sS'lip'
p2428
I4061
sS'useless'
p2429
I3425
sS'liz'
p2430
I5865
sS'towards'
p2431
I1903
sS'quote'
p2432
I1245
sS'hired'
p2433
I4934
sS'experiences'
p2434
I4747
sS'eaten'
p2435
I5725
sS'approved'
p2436
I4995
sS'mobile'
p2437
I2181
sS'clear'
p2438
I929
sS'clean'
p2439
I1256
sS'usual'
p2440
I2255
sS'shoutout'
p2441
I2578
sS'hyped'
p2442
I5540
sS'tfw'
p2443
I4480
sS'northern'
p2444
I5990
sS'justice'
p2445
I1747
sS'flights'
p2446
I4142
sS'pretty'
p2447
I223
sS'circle'
p2448
I3659
sS'meanwhile'
p2449
I2926
sS'trees'
p2450
I4800
sS'famous'
p2451
I1923
sS'feels'
p2452
I821
sS'pretending'
p2453
I3960
sS'basement'
p2454
I5097
sS'during'
p2455
I491
sS'badge'
p2456
I5278
sS'gloves'
p2457
I4259
sS'recommendations'
p2458
I3185
sS'hype'
p2459
I2276
sS'x'
p2460
I1005
sS'throwing'
p2461
I1752
sS'culture'
p2462
I1681
sS'protecting'
p2463
I5877
sS'portrait'
p2464
I4631
sS'pictures'
p2465
I1168
sS'wow'
p2466
I246
sS'won'
p2467
I531
sS'probably'
p2468
I278
sS'rlly'
p2469
I5683
sS'conditions'
p2470
I5894
sS'steelers'
p2471
I4696
sS'makeup'
p2472
I1812
sS'missing'
p2473
I845
sS'spray'
p2474
I5073
sS'ranked'
p2475
I5074
sS'both'
p2476
I241
sS'secrets'
p2477
I4273
sS"wouldn't"
p2478
I516
sS'minorities'
p2479
I5226
sS'sensitive'
p2480
I4085
sS'forgotten'
p2481
I3796
sS'bots'
p2482
I4161
sS'liked'
p2483
I1089
sS'hackers'
p2484
I5390
sS'jeff'
p2485
I2659
sS'cuts'
p2486
I3707
sS'whatever'
p2487
I795
sS'header'
p2488
I4648
sS'likes'
p2489
I1261
sS'described'
p2490
I5759
sS'damn'
p2491
I330
sS'empty'
p2492
I2239
sS'sanders'
p2493
I2036
sS'lived'
p2494
I2061
sS'packs'
p2495
I5642
sS'wet'
p2496
I3663
sS'else'
p2497
I426
sS'anthony'
p2498
I2770
sS'lives'
p2499
I841
sS'look'
p2500
I147
sS'governor'
p2501
I3486
sS'pace'
p2502
I5965
sS'while'
p2503
I321
sS'match'
p2504
I1279
sS'animated'
p2505
I5574
sS'guide'
p2506
I3404
sS'loop'
p2507
I5054
sS'pack'
p2508
I1789
sS'voters'
p2509
I913
sS'funded'
p2510
I5603
sS'hoax'
p2511
I5895
sS'reads'
p2512
I4811
sS'skype'
p2513
I4547
sS'ready'
p2514
I401
sS'anymore'
p2515
I599
sS'grant'
p2516
I5106
sS"gov't"
p2517
I5724
sS'belong'
p2518
I3900
sS'grand'
p2519
I2229
sS'conflict'
p2520
I4839
sS'used'
p2521
I382
sS'lawyers'
p2522
I4708
sS'ratings'
p2523
I2920
sS'bonus'
p2524
I4237
sS'blair'
p2525
I4935
sS'uses'
p2526
I1849
sS'user'
p2527
I2639
sS'older'
p2528
I2237
sS'obviously'
p2529
I1040
sS'yankees'
p2530
I2439
sS'useful'
p2531
I2544
sS'praying'
p2532
I2346
sS'$'
p2533
I1196
sS'burrito'
p2534
I4662
sS'barack'
p2535
I4227
sS'questioned'
p2536
I5816
sS'soooooo'
p2537
I5841
sS'machado'
p2538
I3730
sS'...'
p2539
I39
sS'march'
p2540
I3224
sS'stein'
p2541
I2418
sS'showing'
p2542
I1086
sS'..?'
p2543
I5760
sS'game'
p2544
I179
sS'wings'
p2545
I3150
sS'signal'
p2546
I5643
sS'donna'
p2547
I5555
sS'popular'
p2548
I2302
sS'weiner'
p2549
I4769
sS'sketch'
p2550
I5662
sS'parade'
p2551
I4776
sS'some'
p2552
I101
sS'lips'
p2553
I3380
sS'economic'
p2554
I2835
sS'savage'
p2555
I3002
sS'claimed'
p2556
I4456
sS'eating'
p2557
I850
sS'step'
p2558
I1223
sS'2/2'
p2559
I3430
sS'troops'
p2560
I4719
sS'shine'
p2561
I5765
sS'faith'
p2562
I2250
sS'wouldnt'
p2563
I5262
sS'awwww'
p2564
I4095
sS'aye'
p2565
I3374
sS'idk'
p2566
I519
sS'sponsored'
p2567
I5616
sS'idc'
p2568
I3025
sS'silence'
p2569
I3909
sS'seeing'
p2570
I562
sS'visit'
p2571
I698
sS'within'
p2572
I1668
sS'nonsense'
p2573
I2459
sS'rolls'
p2574
I4312
sS'smells'
p2575
I3670
sS'.,'
p2576
I3919
sS'..'
p2577
I118
sS'accountability'
p2578
I5160
sS'himself'
p2579
I898
sS'registered'
p2580
I3201
sS'gennifer'
p2581
I2850
sS'properly'
p2582
I3530
sS'reed'
p2583
I5183
sS'alive'
p2584
I1264
sS'russian'
p2585
I1954
sS'info'
p2586
I971
sS'....'
p2587
I192
sS'wicked'
p2588
I5117
sS'chelsea'
p2589
I1213
sS'...?'
p2590
I2361
sS'uber'
p2591
I1503
sS'ordered'
p2592
I2050
sS'adults'
p2593
I4133
sS'nah'
p2594
I416
sS'fears'
p2595
I5367
sS'application'
p2596
I5663
sS'nap'
p2597
I2633
sS'naw'
p2598
I3407
sS'tits'
p2599
I5644
sS'grind'
p2600
I4575
sS'department'
p2601
I2829
sS'b/c'
p2602
I3145
sS'manhattan'
p2603
I1709
sS'draw'
p2604
I2253
sS'reportedly'
p2605
I5701
sS'resign'
p2606
I5617
sS'william'
p2607
I5709
sS'drag'
p2608
I2965
sS'e'
p2609
I1878
sS'dvd'
p2610
I5404
sS'required'
p2611
I3327
sS'youtube'
p2612
I1157
sS"she'd"
p2613
I5666
sS'depth'
p2614
I5416
sS'ignorant'
p2615
I1683
sS'underrated'
p2616
I3925
sS'requires'
p2617
I3514
sS'sounded'
p2618
I4645
sS'gf'
p2619
I3045
sS'go'
p2620
I85
sS'gm'
p2621
I3239
sS'tweeted'
p2622
I1269
sS'kate'
p2623
I4136
sS'nose'
p2624
I2278
sS'friendly'
p2625
I3387
sS'kitty'
p2626
I4425
sS'wave'
p2627
I3310
sS'facebook'
p2628
I981
sS'telling'
p2629
I871
sS'positions'
p2630
I4291
sS'button'
p2631
I1662
sS'michael'
p2632
I1404
sS'ryan'
p2633
I1619
sS'deleting'
p2634
I5037
sS'booty'
p2635
I3056
sS'carter'
p2636
I5217
sS'boots'
p2637
I3248
sS'waking'
p2638
I3616
sS'jump'
p2639
I2007
sS'booth'
p2640
I3130
sS'picked'
p2641
I1841
sS'download'
p2642
I2405
sS'click'
p2643
I2241
sS'plays'
p2644
I1508
sS'soup'
p2645
I2608
sS'cell'
p2646
I3163
sS'collins'
p2647
I4263
sS';'
p2648
I424
sS'stance'
p2649
I5596
sS'commercial'
p2650
I2406
sS'following'
p2651
I966
sS'focused'
p2652
I3800
sS'bff'
p2653
I5124
sS'.......'
p2654
I2481
sS'products'
p2655
I2973
sS"weren't"
p2656
I1376
sS'danger'
p2657
I4489
sS'win'
p2658
I308
sS'manage'
p2659
I3983
sS'wit'
p2660
I1793
sS'........'
p2661
I4409
sS'singing'
p2662
I2151
sS'cloud'
p2663
I3013
sS'crap'
p2664
I1316
sS'remains'
p2665
I5391
sS'camera'
p2666
I1414
sS'vehicle'
p2667
I4819
sS'jonathan'
p2668
I5733
sS'popped'
p2669
I4812
sS'1/2'
p2670
I2415
sS'started'
p2671
I462
sS'becomes'
p2672
I2412
sS'about'
p2673
I44
sS'charming'
p2674
I5405
sS'starter'
p2675
I5609
sS'justin'
p2676
I1864
sS'meek'
p2677
I2320
sS'ride'
p2678
I1195
sS'donut'
p2679
I5340
sS'crossed'
p2680
I2935
sS'meet'
p2681
I513
sS'drops'
p2682
I3282
sS'potus'
p2683
I2126
sS'control'
p2684
I936
sS'links'
p2685
I2546
sS'halloween'
p2686
I1147
sS'pulling'
p2687
I3381
sS'wonderful'
p2688
I793
sS'vibe'
p2689
I4765
sS'poetry'
p2690
I5667
sS'located'
p2691
I5726
sS'farm'
p2692
I4197
sS'chiefs'
p2693
I5606
sS'spelling'
p2694
I5521
sS'agenda'
p2695
I2185
sS'healthcare'
p2696
I5141
sS'\xe2\x9a\xa1\xef\xb8\x8f'
p2697
I4944
sS"won't"
p2698
I359
sS'costume'
p2699
I3051
sS'cruise'
p2700
I5415
sS'mentioned'
p2701
I1991
sS'him'
p2702
I108
sS'sniffling'
p2703
I4758
sS'auto'
p2704
I5044
sS'hands'
p2705
I765
sS'front'
p2706
I819
sS'masters'
p2707
I5869
sS'university'
p2708
I2427
sS'guard'
p2709
I4087
sS'slide'
p2710
I2528
sS'mode'
p2711
I2450
sS'crossing'
p2712
I5803
sS'shaking'
p2713
I5118
sS'|'
p2714
I744
sS'measure'
p2715
I4293
sS'special'
p2716
I794
sS'secretly'
p2717
I5556
sS'entertainment'
p2718
I3797
sS'ricky'
p2719
I3934
sS'memes'
p2720
I2905
sS'cause'
p2721
I368
sS"one's"
p2722
I4102
sS'attending'
p2723
I3855
sS'completely'
p2724
I970
sS'jill'
p2725
I2473
sS'conservatives'
p2726
I4051
sS'princess'
p2727
I3397
sS'route'
p2728
I3692
sS'florida'
p2729
I1524
sS'times'
p2730
I356
sS'austin'
p2731
I3693
sS'designed'
p2732
I3255
sS'powerful'
p2733
I2028
sS'bitch'
p2734
I407
sS'quality'
p2735
I1550
sS'hiding'
p2736
I2490
sS"you're"
p2737
I93
sS'playlist'
p2738
I2747
sS'management'
p2739
I3920
sS'privacy'
p2740
I5840
sS'bears'
p2741
I2325
sS'data'
p2742
I975
sS'relations'
p2743
I5713
sS"clinton's"
p2744
I1497
sS'attack'
p2745
I1010
sS'ankle'
p2746
I5866
sS'perfectly'
p2747
I2875
sS'final'
p2748
I1284
sS'beard'
p2749
I3230
sS'2-0'
p2750
I4463
sS'exactly'
p2751
I427
sS'lists'
p2752
I5132
sS"that'll"
p2753
I3928
sS'herself'
p2754
I2555
sS'photograph'
p2755
I5268
sS'ben'
p2756
I2291
sS'bed'
p2757
I723
sS'bee'
p2758
I4641
sS'maybe'
p2759
I226
sS'bet'
p2760
I634
sS'close'
p2761
I553
sS'need'
p2762
I97
sS'border'
p2763
I3935
sS'screw'
p2764
I3141
sS'bastard'
p2765
I4351
sS'able'
p2766
I780
sS'truck'
p2767
I2632
sS'brand'
p2768
I640
sS'aww'
p2769
I1466
sS'connected'
p2770
I4143
sS'awe'
p2771
I2885
sS'consequences'
p2772
I4688
sS'upset'
p2773
I1499
sS'$$$'
p2774
I4045
sS'impression'
p2775
I4937
sS'anyway'
p2776
I910
sS'aren\xe2\x80\x99t'
p2777
I4358
sS'soldiers'
p2778
I5000
sS'shoes'
p2779
I1535
sS'partners'
p2780
I5347
sS'based'
p2781
I1073
sS'earned'
p2782
I3791
sS'('
p2783
I126
sS'winner'
p2784
I1634
sS'employee'
p2785
I4990
sS'michigan'
p2786
I3644
sS'overall'
p2787
I3581
sS'joint'
p2788
I3398
sS'\xe2\x80\xa6.'
p2789
I4903
sS'evolution'
p2790
I4916
sS'trucks'
p2791
I4996
sS'hiring'
p2792
I4002
sS'shy'
p2793
I5241
sS'kellyanne'
p2794
I4129
sS'tuned'
p2795
I2822
sS'she'
p2796
I84
sS'wish'
p2797
I317
sS'grab'
p2798
I2166
sS'piss'
p2799
I3735
sS'spotted'
p2800
I3870
sS'prayers'
p2801
I2708
sS'pitch'
p2802
I2273
sS'humans'
p2803
I2306
sS'officials'
p2804
I3365
sS'desperate'
p2805
I2936
sS'stats'
p2806
I3070
sS'luv'
p2807
I2852
sS'nightmare'
p2808
I2594
sS'tend'
p2809
I4824
sS'written'
p2810
I1835
sS'correctly'
p2811
I3498
sS'horrible'
p2812
I1133
sS'neither'
p2813
I1447
sS'ken'
p2814
I5664
sS'importance'
p2815
I5284
sS'kicking'
p2816
I3592
sS'key'
p2817
I1025
sS'approval'
p2818
I4801
sS'precious'
p2819
I3474
sS'thumb'
p2820
I5699
sS'hits'
p2821
I2164
sS'limits'
p2822
I5368
sS'career'
p2823
I1352
sS'minds'
p2824
I2592
sS'admit'
p2825
I1834
sS'jersey'
p2826
I1176
sS'torn'
p2827
I4643
sS'tuesday'
p2828
I1423
sS'kings'
p2829
I5735
sS'quit'
p2830
I2047
sS'yay'
p2831
I1296
sS'addition'
p2832
I4975
sS'discrimination'
p2833
I5727
sS'yas'
p2834
I5424
sS'quiz'
p2835
I5734
sS'liberals'
p2836
I1942
sS'slowly'
p2837
I3305
sS'yah'
p2838
I3788
sS'circus'
p2839
I5824
sS'controlled'
p2840
I4850
sS'league'
p2841
I1068
sS'releasing'
p2842
I3760
sS'tweets'
p2843
I571
sS'mail'
p2844
I2298
sS'kicks'
p2845
I5488
sS'smoking'
p2846
I2836
sS'brunch'
p2847
I3880
sS'shameless'
p2848
I5575
sS'novel'
p2849
I4204
sS'harder'
p2850
I2687
sS'gucci'
p2851
I5446
sS'owns'
p2852
I3814
sS'demo'
p2853
I3902
sS'dems'
p2854
I2205
sS'bucks'
p2855
I4274
sS'capture'
p2856
I4950
sS'began'
p2857
I4514
sS'funniest'
p2858
I3649
sS'strange'
p2859
I1910
sS'speaker'
p2860
I4306
sS'party'
p2861
I371
sS'effect'
p2862
I2282
sS'sarcastic'
p2863
I3981
sS'frequently'
p2864
I5092
sS'nation'
p2865
I1711
sS'destruction'
p2866
I4545
sS'//'
p2867
I2524
sS'i'
p2868
I4
sS'well'
p2869
I120
sS'welp'
p2870
I3240
sS'drone'
p2871
I4209
sS'accurate'
p2872
I1756
sS'sources'
p2873
I2650
sS'mistakes'
p2874
I4951
sS'virtual'
p2875
I5449
sS'skill'
p2876
I4621
sS'lauren'
p2877
I5716
sS'headed'
p2878
I2536
sS'killed'
p2879
I771
sS'battery'
p2880
I2749
sS'kick'
p2881
I1563
sS'crushed'
p2882
I4410
sS'historic'
p2883
I5597
sS'immediately'
p2884
I1818
sS'loss'
p2885
I1504
sS'lincoln'
p2886
I5478
sS'necessary'
p2887
I2837
sS'lost'
p2888
I463
sS'clown'
p2889
I1944
sS'martin'
p2890
I3142
sS'refugees'
p2891
I1578
sS'page'
p2892
I977
sS'twitter'
p2893
I225
sS'library'
p2894
I2433
sS'francisco'
p2895
I1433
sS'shes'
p2896
I2359
sS'cleveland'
p2897
I4359
sS'home'
p2898
I261
sS'liking'
p2899
I2867
sS'peter'
p2900
I3415
sS'broad'
p2901
I5191
sS'?'
p2902
I12
sS'duh'
p2903
I2667
sS'reaching'
p2904
I3691
sS'amy'
p2905
I3209
sS'freedom'
p2906
I2048
sS'tongue'
p2907
I4233
sS'equally'
p2908
I4400
sS'?????'
p2909
I2270
sS'glenn'
p2910
I5535
sS'washington'
p2911
I1638
sS'artists'
p2912
I3838
sS'capable'
p2913
I5370
sS'couldnt'
p2914
I5991
sS'strategy'
p2915
I2460
sS'accused'
p2916
I2972
sS'additional'
p2917
I4632
sS'whom'
p2918
I3923
sS'museum'
p2919
I2968
sS'noticed'
p2920
I1845
sS'inner'
p2921
I3515
sS'inspiration'
p2922
I2847
sS'north'
p2923
I1060
sS'hr'
p2924
I3342
sS'hs'
p2925
I4611
sS'hq'
p2926
I4612
sS'hw'
p2927
I3801
sS'forreal'
p2928
I5718
sS'blaming'
p2929
I3826
sS'hi'
p2930
I527
sS'ho'
p2931
I4294
sS'hm'
p2932
I4613
sS'hc'
p2933
I4945
sS'ear'
p2934
I3533
sS'eat'
p2935
I523
sS'he'
p2936
I42
sS'hosting'
p2937
I3549
sS'signed'
p2938
I1567
sS'po'
p2939
I5466
sS'kardashian'
p2940
I4787
sS'cruel'
p2941
I5618
sS'dms'
p2942
I4464
sS'limit'
p2943
I3487
sS'pumped'
p2944
I4411
sS'piece'
p2945
I749
sS'display'
p2946
I4065
sS'universal'
p2947
I5133
sS'kisses'
p2948
I5440
sS'twist'
p2949
I3637
sS'beats'
p2950
I601
sS'education'
p2951
I1771
sS'girl'
p2952
I272
sS'diego'
p2953
I4054
sS'rumors'
p2954
I4173
sS'contest'
p2955
I3060
sS'offensive'
p2956
I2672
sS'talkin'
p2957
I3584
sS'stat'
p2958
I4707
sS'star'
p2959
I777
sS'insults'
p2960
I3936
sS'stan'
p2961
I5779
sS'friends'
p2962
I344
sS'samsung'
p2963
I4738
sS'uneducated'
p2964
I5055
sS'whoops'
p2965
I4825
sS'temperament'
p2966
I2928
sS'protest'
p2967
I1654
sS'asian'
p2968
I3296
sS'captain'
p2969
I3336
sS'whose'
p2970
I2281
sS'swag'
p2971
I5749
sS'buddy'
p2972
I1234
sS'sweetest'
p2973
I5335
sS'presents'
p2974
I5856
sS'teaching'
p2975
I3134
sS'sorry'
p2976
I253
sS'updated'
p2977
I2115
sS'rescue'
p2978
I5793
sS'harambe'
p2979
I3283
sS'updates'
p2980
I2402
sS'affect'
p2981
I5167
sS'skills'
p2982
I2848
sS'companies'
p2983
I2112
sS'solution'
p2984
I2489
sS'deplorable'
p2985
I1321
sS'ups'
p2986
I3951
sS'clothes'
p2987
I1973
sS'10k'
p2988
I5940
sS'force'
p2989
I1551
sS'japanese'
p2990
I3807
sS'across'
p2991
I1246
sS'likely'
p2992
I1169
sS'even'
p2993
I119
sS'wreck'
p2994
I5455
sS'saved'
p2995
I2140
sS'lights'
p2996
I2651
sS'dr.'
p2997
I2616
sS'new'
p2998
I91
sS'tips'
p2999
I2571
sS'ever'
p3000
I176
sS'pancakes'
p3001
I5656
sS'never'
p3002
I124
sS'meh'
p3003
I4190
sS'drew'
p3004
I3541
sS'10%'
p3005
I5315
sS'met'
p3006
I982
sS'\xef\xb8\x8f'
p3007
I173
sS'active'
p3008
I3755
sS'100'
p3009
I1343
sS"aren't"
p3010
I506
sS'dry'
p3011
I2451
sS'\xf0\x9f\x98\x82\xf0\x9f\x98\x82\xf0\x9f\x98\x82'
p3012
I488
sS'ignoring'
p3013
I4067
sS'credit'
p3014
I1145
sS"someone's"
p3015
I2838
sS'eyebrows'
p3016
I4777
sS'fantastic'
p3017
I1110
sS'campaign'
p3018
I489
sS'reagan'
p3019
I4285
sS'county'
p3020
I2644
sS'moral'
p3021
I3839
sS'guests'
p3022
I5075
sS'counts'
p3023
I3390
sS'criminals'
p3024
I3262
sS'army'
p3025
I3026
sS'arms'
p3026
I3076
sS'cali'
p3027
I2952
sS'call'
p3028
I322
sS'calm'
p3029
I2213
sS'typo'
p3030
I3316
sS'recommend'
p3031
I1696
sS'survive'
p3032
I2738
sS'type'
p3033
I858
sS'tell'
p3034
I228
sS'snowden'
p3035
I5766
sS'posting'
p3036
I1980
sS'oscar'
p3037
I5142
sS'expose'
p3038
I3988
sS'odell'
p3039
I5479
sS'wars'
p3040
I2815
sS'berlin'
p3041
I5586
sS'warm'
p3042
I2256
sS'adult'
p3043
I2466
sS'room'
p3044
I608
sS'rights'
p3045
I1501
sS'setup'
p3046
I4247
sS'roof'
p3047
I4783
sS'whack'
p3048
I4892
sS'movies'
p3049
I1301
sS'root'
p3050
I4074
sS'vodka'
p3051
I4466
sS'give'
p3052
I264
sS'laughs'
p3053
I5062
sS'honey'
p3054
I2038
sS'foods'
p3055
I4600
sS'homie'
p3056
I1927
sS'soros'
p3057
I3937
sS'amazing'
p3058
I265
sS'answer'
p3059
I578
sS'gordon'
p3060
I4633
sS'minority'
p3061
I4018
sS'president'
p3062
I373
sS'purchase'
p3063
I2869
sS'attempt'
p3064
I3151
sS'third'
p3065
I1211
sS'capitalism'
p3066
I4527
sS'maintain'
p3067
I5576
sS'goodbye'
p3068
I3478
sS'athletes'
p3069
I5406
sS'fifa'
p3070
I4009
sS'deck'
p3071
I4474
sS'murray'
p3072
I5794
sS'keyboard'
p3073
I3625
sS'before'
p3074
I209
sS'what\xe2\x80\x99s'
p3075
I3479
sS'personal'
p3076
I1030
sS','
p3077
I7
sS'crew'
p3078
I2099
sS'better'
p3079
I142
sS'differently'
p3080
I4962
sS'weeks'
p3081
I715
sS'donors'
p3082
I3824
sS'workout'
p3083
I3676
sS'therapy'
p3084
I5316
sS'rhetoric'
p3085
I4395
sS'grammar'
p3086
I4253
sS'meat'
p3087
I2709
sS'arrested'
p3088
I2329
sS'roast'
p3089
I5426
sS'went'
p3090
I383
sS'side'
p3091
I591
sS'bone'
p3092
I4364
sS'mean'
p3093
I227
sS'gunna'
p3094
I3016
sS'aide'
p3095
I5035
sS'dawg'
p3096
I3317
sS'trading'
p3097
I5518
sS'stealing'
p3098
I2862
sS'aids'
p3099
I5898
sS'dawn'
p3100
I5875
sS'content'
p3101
I1702
sS'surprise'
p3102
I1439
sS'turning'
p3103
I2065
sS'cutest'
p3104
I2824
sS'u.s.'
p3105
I1341
sS'fave'
p3106
I1794
sS'revenge'
p3107
I5984
sS'struggle'
p3108
I2210
sS'hoodie'
p3109
I4459
sS'favs'
p3110
I4036
sS'starts'
p3111
I1191
sS'messages'
p3112
I2597
sS'arrived'
p3113
I2990
sS'loud'
p3114
I1609
sS'fuckin'
p3115
I1151
sS'cleaning'
p3116
I3674
sS'features'
p3117
I3333
sS'grade'
p3118
I2080
sS'hook'
p3119
I2733
sS'featured'
p3120
I4276
sS'hood'
p3121
I2657
sS'brock'
p3122
I5305
sS'girly'
p3123
I5876
sS'girls'
p3124
I686
sS'twisted'
p3125
I5857
sS'hollywood'
p3126
I2961
sS'gym'
p3127
I1691
sS'somewhat'
p3128
I5577
sS'begins'
p3129
I3010
sS'distance'
p3130
I3789
sS'anxiety'
p3131
I3049
sS'preparation'
p3132
I4956
sS'matter'
p3133
I629
sS'fabulous'
p3134
I2754
sS'silly'
p3135
I2030
sS'mini'
p3136
I3921
sS'sees'
p3137
I3775
sS'modern'
p3138
I2435
sS'mind'
p3139
I507
sS'mine'
p3140
I502
sS'seen'
p3141
I335
sS'seem'
p3142
I935
sS'sounding'
p3143
I5843
sS'seek'
p3144
I4401
sS'tells'
p3145
I1469
sS'chest'
p3146
I3965
sS'mario'
p3147
I4634
sS'regular'
p3148
I1831
sS'don'
p3149
I1879
sS'doc'
p3150
I3297
sS'medical'
p3151
I2331
sS'm'
p3152
I1484
sS'dog'
p3153
I646
sS'doe'
p3154
I3974
sS'??????'
p3155
I4556
sS'definitely'
p3156
I384
sS'annoyed'
p3157
I3961
sS'dot'
p3158
I4107
sS'lyrics'
p3159
I3191
sS'retire'
p3160
I5702
sS'ending'
p3161
I2543
sS'liberty'
p3162
I4913
sS'weekends'
p3163
I4307
sS'sugar'
p3164
I2515
sS'folks'
p3165
I901
sS'wearing'
p3166
I688
sS'monica'
p3167
I3865
sS'stop'
p3168
I211
sS'coast'
p3169
I1888
sS'earn'
p3170
I5966
sS'bar'
p3171
I897
sS'bay'
p3172
I1138
sS'bag'
p3173
I1426
sS'bad'
p3174
I189
sS'bae'
p3175
I2143
sS'ban'
p3176
I3243
sS'ears'
p3177
I2922
sS'reference'
p3178
I1744
sS'testing'
p3179
I3194
sS'decided'
p3180
I1522
sS'subject'
p3181
I3334
sS'pete'
p3182
I5570
sS'said'
p3183
I178
sS'imessage'
p3184
I5351
sS"there's"
p3185
I288
sS'lazy'
p3186
I2669
sS'omg'
p3187
I240
sS'wears'
p3188
I3608
sS'ignorance'
p3189
I2422
sS'cousin'
p3190
I2225
sS'picking'
p3191
I2389
sS'suggested'
p3192
I5076
sS'against'
p3193
I390
sS'russia'
p3194
I1595
sS'unk'
p3195
I3
sS'appeared'
p3196
I5761
sS'height'
p3197
I5804
sS'loaded'
p3198
I4542
sS'targeting'
p3199
I5218
sS'puts'
p3200
I2583
sS'basis'
p3201
I4759
sS'three'
p3202
I612
sS'tiny'
p3203
I1851
sS'commission'
p3204
I4511
sS'trigger'
p3205
I5407
sS'interest'
p3206
I1912
sS'basic'
p3207
I1977
sS'entered'
p3208
I5919
sS'lovely'
p3209
I997
sS'threw'
p3210
I2069
sS'website'
p3211
I866
sS'deeper'
p3212
I5967
sS'sunshine'
p3213
I4353
sS'sooooo'
p3214
I3223
sS'personally'
p3215
I1803
sS'tank'
p3216
I2685
sS'tastes'
p3217
I4539
sS'ugly'
p3218
I1128
sS'near'
p3219
I877
sS'suppose'
p3220
I2486
sS'balance'
p3221
I3165
sS'study'
p3222
I1531
sS'chilling'
p3223
I5558
sS'seven'
p3224
I3493
sS'mexico'
p3225
I2358
sS'is'
p3226
I10
sS'sushi'
p3227
I3825
sS'it'
p3228
I16
sS'ii'
p3229
I2532
sS'shame'
p3230
I1217
sS'cant'
p3231
I682
sS'im'
p3232
I196
sS'in'
p3233
I14
sS'seattle'
p3234
I2607
sS'mouse'
p3235
I5456
sS'id'
p3236
I1463
sS'ig'
p3237
I2832
sS'if'
p3238
I46
sS'grown'
p3239
I2865
sS'bottles'
p3240
I5045
sS'make'
p3241
I121
sS'meetup'
p3242
I5519
sS'potentially'
p3243
I5468
sS'hahah'
p3244
I2128
sS'unfortunate'
p3245
I5805
sS'80s'
p3246
I4198
sS'i\xe2\x80\x99ve'
p3247
I2234
sS'entitled'
p3248
I4813
sS'meets'
p3249
I4881
sS'kit'
p3250
I3763
sS'bloomberg'
p3251
I5427
sS'jealous'
p3252
I1278
sS'opportunity'
p3253
I1934
sS"he'll"
p3254
I1568
sS'thoughts'
p3255
I906
sS'kid'
p3256
I753
sS'butter'
p3257
I2646
sS'programs'
p3258
I5227
sS'changes'
p3259
I1947
sS'failing'
p3260
I3439
sS'practices'
p3261
I4802
sS'claims'
p3262
I1631
sS'smoked'
p3263
I5953
sS'yours'
p3264
I917
sS'left'
p3265
I405
sS'just'
p3266
I31
sS'sentence'
p3267
I2840
sS'yea'
p3268
I602
sS'unfollow'
p3269
I3886
sS'unfair'
p3270
I3264
sS'fighters'
p3271
I5817
sS'identify'
p3272
I4921
sS'human'
p3273
I880
sS'facts'
p3274
I559
sS'yep'
p3275
I763
sS'yes'
p3276
I116
sS'yet'
p3277
I295
sS'candidate'
p3278
I806
sS'character'
p3279
I1117
sS'potential'
p3280
I2372
sS'save'
p3281
I779
sS'preseason'
p3282
I4983
sS'tmrw'
p3283
I5530
sS'background'
p3284
I2123
sS'destroy'
p3285
I2209
sS'govt'
p3286
I3233
sS'dreams'
p3287
I1669
sS'shoulder'
p3288
I3170
sS'nevermind'
p3289
I5931
sS'nude'
p3290
I5818
sS'performing'
p3291
I3241
sS'unnecessary'
p3292
I5176
sS'dean'
p3293
I3440
sS'deal'
p3294
I694
sS'somehow'
p3295
I1740
sS'dead'
p3296
I494
sS'wwe'
p3297
I3881
sS'intern'
p3298
I5941
sS'dear'
p3299
I1006
sS'notification'
p3300
I5046
sS'normal'
p3301
I1648
sS'arguing'
p3302
I3660
sS'\xf0\x9f\x94\xa5\xf0\x9f\x94\xa5\xf0\x9f\x94\xa5'
p3303
I3161
sS'\xf0\x9f\x98\x8d\xf0\x9f\x98\x8d'
p3304
I3014
sS'bold'
p3305
I4622
sS'burn'
p3306
I1928
sS'super'
p3307
I501
sS'?!?!'
p3308
I2500
sS'yelling'
p3309
I3183
sS'assault'
p3310
I3926
sS'magazine'
p3311
I3494
sS'afternoon'
p3312
I1713
sS'commit'
p3313
I3792
sS'automatically'
p3314
I4415
sS'nerve'
p3315
I4766
sS'whats'
p3316
I1566
sS'lied'
p3317
I1815
sS'selfie'
p3318
I2547
sS"world's"
p3319
I3813
sS'down'
p3320
I184
sS'lies'
p3321
I690
sS'rant'
p3322
I4369
sS'flying'
p3323
I2147
sS'editor'
p3324
I4112
sS'form'
p3325
I1584
sS'batman'
p3326
I2985
sS'failure'
p3327
I2876
sS'understood'
p3328
I3395
sS'attached'
p3329
I5098
sS'trends'
p3330
I5791
sS'whiskey'
p3331
I5107
sS'daddy'
p3332
I2357
sS'propaganda'
p3333
I2647
sS'kaine'
p3334
I4601
sS'sticks'
p3335
I5147
sS'classic'
p3336
I1363
sS'covers'
p3337
I3706
sS'sale'
p3338
I1727
sS'mediocre'
p3339
I5932
sS'shit'
p3340
I137
sS'generally'
p3341
I3724
sS'handed'
p3342
I5773
sS'digital'
p3343
I2811
sS'delivered'
p3344
I4157
sS'dies'
p3345
I3355
sS'felt'
p3346
I1197
sS'diet'
p3347
I4119
sS'fell'
p3348
I1916
sS'weekend'
p3349
I411
sS'died'
p3350
I1335
sS'billion'
p3351
I2243
sS'happening'
p3352
I802
sS'apology'
p3353
I2975
sS'potato'
p3354
I4081
sS'assume'
p3355
I1893
sS'daily'
p3356
I1303
sS'jacket'
p3357
I2923
sS'teeth'
p3358
I2480
sS'managed'
p3359
I4037
sS'skip'
p3360
I3284
sS'walking'
p3361
I1302
sS'laura'
p3362
I4614
sS'manager'
p3363
I1515
sS'mile'
p3364
I4528
sS'skin'
p3365
I1754
sS'shot'
p3366
I563
sS'mill'
p3367
I4558
sS'prop'
p3368
I5744
sS'milk'
p3369
I2107
sS'21st'
p3370
I3411
sS'suicide'
p3371
I3021
sS'yummy'
p3372
I4663
sS'father'
p3373
I1471
sS'disgusting'
p3374
I1266
sS'answered'
p3375
I3382
sS'finally'
p3376
I480
sS'marks'
p3377
I4893
sS'me'
p3378
I23
sS'string'
p3379
I5379
sS'free2watch'
p3380
I5086
sS'tacos'
p3381
I3092
sS'lynch'
p3382
I4989
sS'ma'
p3383
I3602
sS'did'
p3384
I89
sS'die'
p3385
I774
sS'dig'
p3386
I2778
sS'accidentally'
p3387
I2533
sS'travels'
p3388
I4165
sS'item'
p3389
I5692
sS'round'
p3390
I1370
sS"it'll"
p3391
I1336
sS'shave'
p3392
I4831
sS'unexpected'
p3393
I5628
sS'dealing'
p3394
I3312
sS'run'
p3395
I444
sS'afghanistan'
p3396
I5487
sS'adds'
p3397
I5056
sS'suspect'
p3398
I1613
sS'international'
p3399
I2462
sS'filled'
p3400
I2780
sS'palmer'
p3401
I3673
sS'install'
p3402
I4220
sS'mr'
p3403
I2041
sS'french'
p3404
I2363
sS'wait'
p3405
I174
sS'box'
p3406
I1295
sS'boy'
p3407
I498
sS'yessss'
p3408
I3761
sS'canadian'
p3409
I3980
sS'shift'
p3410
I3171
sS'bot'
p3411
I3061
sS'bow'
p3412
I4260
sS'boi'
p3413
I3062
sS'suggestion'
p3414
I3852
sS'boo'
p3415
I1075
sS'bob'
p3416
I3593
sS'massage'
p3417
I5997
sS'genuinely'
p3418
I3369
sS'treasure'
p3419
I5108
sS'elect'
p3420
I3263
sS'merely'
p3421
I4655
sS'patriots'
p3422
I2906
sS'everybody'
p3423
I1173
sS'wealth'
p3424
I5942
sS'sake'
p3425
I4709
sS'dude'
p3426
I337
sS'france'
p3427
I4050
sS'ahhh'
p3428
I2552
sS'thru'
p3429
I1371
sS'sharing'
p3430
I645
sS'acceptable'
p3431
I3472
sS'ooh'
p3432
I2771
sS'downtown'
p3433
I2797
sS'effort'
p3434
I2347
sS'fly'
p3435
I1451
sS'soul'
p3436
I1571
sS'reviews'
p3437
I3654
sS'wallet'
p3438
I5198
sS'sour'
p3439
I4820
sS'9th'
p3440
I3678
sS'isn\xe2\x80\x99t'
p3441
I3005
sS'making'
p3442
I343
sS'arrive'
p3443
I5184
sS'bites'
p3444
I5792
sS'claim'
p3445
I1454
sS'crazy'
p3446
I378
sS'fuck'
p3447
I195
sS'agent'
p3448
I3156
sS'sample'
p3449
I3910
sS'council'
p3450
I4365
sS'pink'
p3451
I2673
sS'nyt'
p3452
I4732
sS'till'
p3453
I878
sS'sunday'
p3454
I654
sS'pure'
p3455
I1901
sS'nyc'
p3456
I370
sS'map'
p3457
I2833
sS'staying'
p3458
I1899
sS'designer'
p3459
I2947
sS'140'
p3460
I4887
sS'may'
p3461
I374
sS'max'
p3462
I2337
sS'snl'
p3463
I5920
sS'mac'
p3464
I1884
sS'mad'
p3465
I570
sS'end'
p3466
I388
sS'guys'
p3467
I219
sS'grow'
p3468
I1549
sS'man'
p3469
I149
sS'neck'
p3470
I2508
sS'johnson'
p3471
I1393
sS'6th'
p3472
I2978
sS'q'
p3473
I2340
sS'switch'
p3474
I1816
sS'jail'
p3475
I2138
sS'block'
p3476
I934
sS'african'
p3477
I1891
sS'basket'
p3478
I3962
sS'tall'
p3479
I3198
sS'talk'
p3480
I312
sS'cute'
p3481
I417
sS'shield'
p3482
I5423
sS'wishing'
p3483
I2132
sS'shake'
p3484
I2793
sS'police'
p3485
I456
sS'thank'
p3486
I100
sS'interesting'
p3487
I596
sS'\xf0\x9f\x98\x82\xf0\x9f\x98\x82\xf0\x9f\x98\x82\xf0\x9f\x98\x82'
p3488
I1288
sS'coaching'
p3489
I4591
sS'policy'
p3490
I1240
sS'ours'
p3491
I4070
sS'msnbc'
p3492
I3950
sS'main'
p3493
I1632
sS'texas'
p3494
I1628
sS'views'
p3495
I2149
sS'killer'
p3496
I2854
sS'sooner'
p3497
I3642
sS'lunch'
p3498
I1304
sS'kkk'
p3499
I4214
sS'bullshit'
p3500
I1182
sS'settings'
p3501
I4366
sS'rock'
p3502
I881
sS'profiling'
p3503
I5998
sS'unlock'
p3504
I4726
sS'deplorables'
p3505
I3032
sS'elizabeth'
p3506
I2859
sS'canada'
p3507
I1890
sS'living'
p3508
I813
sS'jackson'
p3509
I2868
sS'3rd'
p3510
I1390
sS'miles'
p3511
I2334
sS'nudes'
p3512
I4865
sS'correct'
p3513
I943
sS'wasn\xe2\x80\x99t'
p3514
I5954
sS'earlier'
p3515
I1041
sS'monster'
p3516
I2342
sS'california'
p3517
I1183
sS'cough'
p3518
I4637
sS'keith'
p3519
I2984
sS'advance'
p3520
I3572
sS'language'
p3521
I1745
sS'headphones'
p3522
I3349
sS'thing'
p3523
I168
sS'think'
p3524
I74
sS'waited'
p3525
I5323
sS'first'
p3526
I143
sS'cheese'
p3527
I1142
sS'question'
p3528
I410
sS'rachel'
p3529
I4760
sS'crib'
p3530
I5904
sS'americans'
p3531
I770
sS'long'
p3532
I255
sS'suspended'
p3533
I4402
sS'carry'
p3534
I2113
sS'sounds'
p3535
I379
sS'little'
p3536
I258
sS'slept'
p3537
I3624
sS'anyone'
p3538
I271
sS'speaking'
p3539
I1099
sS'meme'
p3540
I1828
sS'eyes'
p3541
I851
sS'memo'
p3542
I5969
sS'broadcast'
p3543
I3873
sS'hillary'
p3544
I148
sS'butt'
p3545
I1981
sS"here's"
p3546
I600
sS'11'
p3547
I1358
sS'10'
p3548
I450
sS'13'
p3549
I1819
sS'12'
p3550
I1049
sS'15'
p3551
I1084
sS'14'
p3552
I2289
sS'17'
p3553
I2046
sS'16'
p3554
I1656
sS'19'
p3555
I3614
sS'18'
p3556
I2135
sS'gotta'
p3557
I326
sS'protected'
p3558
I5063
sS'1%'
p3559
I4840
sS'were'
p3560
I129
sS'coconut'
p3561
I5269
sS'lick'
p3562
I4826
sS'topics'
p3563
I5087
sS'marijuana'
p3564
I4078
sS'voices'
p3565
I4327
sS'conspiracy'
p3566
I1904
sS'nazi'
p3567
I3182
sS'calendar'
p3568
I4499
sS'kevin'
p3569
I2219
sS'speakers'
p3570
I4814
sS'answering'
p3571
I3521
sS'shocked'
p3572
I2082
sS'clintons'
p3573
I2946
sS'squad'
p3574
I2394
sS'performance'
p3575
I1366
sS'switching'
p3576
I5693
sS'channel'
p3577
I1467
sS'200'
p3578
I3679
sS'pain'
p3579
I1615
sS'norman'
p3580
I4909
sS'theatre'
p3581
I5428
sS'roster'
p3582
I3955
sS'track'
p3583
I1252
sS'paid'
p3584
I859
sS'beta'
p3585
I4548
sS'20%'
p3586
I5295
sS'pair'
p3587
I1924
sS'queens'
p3588
I2955
sS'cuban'
p3589
I2362
sS'especially'
p3590
I754
sS'surprising'
p3591
I3386
sS'diversity'
p3592
I4252
sS'larry'
p3593
I3866
sS'haven\xe2\x80\x99t'
p3594
I4422
sS'shop'
p3595
I1597
sS'rating'
p3596
I5844
sS'playoffs'
p3597
I2215
sS'show'
p3598
I177
sS'moderator'
p3599
I2386
sS'shoe'
p3600
I3077
sS'corner'
p3601
I1930
sS'forecast'
p3602
I5858
sS'dick'
p3603
I903
sS'enough'
p3604
I347
sS'black'
p3605
I266
sS'awareness'
p3606
I4000
sS'get'
p3607
I52
sS'killers'
p3608
I5906
sS'nearly'
p3609
I1688
sS'gee'
p3610
I5819
sS'gen'
p3611
I5161
sS'gem'
p3612
I4682
sS'secondary'
p3613
I4727
sS'morning'
p3614
I304
sS'stupid'
p3615
I533
sS'finishing'
p3616
I4623
sS'honesty'
p3617
I5114
sS"bill's"
p3618
I5185
sS'seat'
p3619
I1776
sS'sean'
p3620
I2001
sS'?!?!?'
p3621
I4946
sS'wonder'
p3622
I572
sS'24/7'
p3623
I4055
sS'label'
p3624
I4460
sS'behind'
p3625
I702
sS'gaga'
p3626
I4664
sS'reading'
p3627
I699
sS'checks'
p3628
I3681
sS'affordable'
p3629
I5349
sS'infrastructure'
p3630
I5109
sS'august'
p3631
I4416
sS'parent'
p3632
I5357
sS'jr'
p3633
I4518
sS'killing'
p3634
I1056
sS'jk'
p3635
I2078
sS'trolling'
p3636
I3046
sS'jfk'
p3637
I4841
sS'dates'
p3638
I2957
sS'fried'
p3639
I3344
sS'similar'
p3640
I1425
sS'according'
p3641
I1761
sS'tour'
p3642
I1179
sS'kaepernick'
p3643
I2683
sS'spare'
p3644
I4818
sS'among'
p3645
I2045
sS'cancer'
p3646
I2190
sS'cancel'
p3647
I3528
sS'custody'
p3648
I5448
sS'considering'
p3649
I1430
sS'arts'
p3650
I5380
sS'marc'
p3651
I4484
sS'mark'
p3652
I1088
sS'mars'
p3653
I2927
sS'mary'
p3654
I2740
sS'educated'
p3655
I3615
sS'shopping'
p3656
I2299
sS'offered'
p3657
I3827
sS'dramatic'
p3658
I4025
sS'wake'
p3659
I1087
sS'those'
p3660
I181
sS'sound'
p3661
I739
sS'promising'
p3662
I5921
sS'cancelled'
p3663
I3089
sS'investigating'
p3664
I5064
sS'cock'
p3665
I4335
sS'then'
p3666
I133
sS'coffee'
p3667
I628
sS'sleeping'
p3668
I1870
sS'middle'
p3669
I1007
sS'sudden'
p3670
I5192
sS'everyday'
p3671
I1250
sS'bags'
p3672
I3828
sS'different'
p3673
I451
sS'pat'
p3674
I4455
sS'doctor'
p3675
I2568
sS'pay'
p3676
I482
sS'pepe'
p3677
I3798
sS'same'
p3678
I160
sS'speech'
p3679
I1177
sS'arguments'
p3680
I5506
sS'struggling'
p3681
I3630
sS'emojis'
p3682
I4383
sS'pal'
p3683
I3094
sS'oil'
p3684
I2499
sS'assist'
p3685
I3636
sS'running'
p3686
I603
sS'totally'
p3687
I540
sS'conor'
p3688
I5985
sS'hispanics'
p3689
I5863
sS'roommate'
p3690
I3664
sS'accountable'
p3691
I4228
sS'solve'
p3692
I3396
sS'bottle'
p3693
I1781
sS'parody'
p3694
I4543
sS'gates'
p3695
I4778
sS'money'
p3696
I355
sS'kasich'
p3697
I4205
sS'flavor'
p3698
I3946
sS'clueless'
p3699
I3420
sS'politicians'
p3700
I2718
sS'ahhhh'
p3701
I4429
sS'4'
p3702
I310
sS'jake'
p3703
I4277
sS'nat'
p3704
I3520
sS'mom'
p3705
I568
sS'mob'
p3706
I5657
sS'disappointed'
p3707
I2014
sS'patronus'
p3708
I3566
sS'lightning'
p3709
I4436
sS'facing'
p3710
I4984
sS'audience'
p3711
I2091
sS'either'
p3712
I412
sS'served'
p3713
I3585
sS'passionate'
p3714
I5229
sS'jews'
p3715
I1565
sS'doll'
p3716
I5796
sS'l'
p3717
I1348
sS'images'
p3718
I4553
sS'gross'
p3719
I1983
sS'outs'
p3720
I5868
sS'confirm'
p3721
I2995
sS'critical'
p3722
I3426
sS'moderate'
p3723
I5489
sS'knife'
p3724
I5193
sS'seconds'
p3725
I1519
sS'fitness'
p3726
I4853
sS'broken'
p3727
I1517
sS'stations'
p3728
I5646
sS'island'
p3729
I1460
sS'violence'
p3730
I1506
sS'mixed'
p3731
I2941
sS'road'
p3732
I1340
sS'whites'
p3733
I2573
sS'spreading'
p3734
I3554
sS'blessed'
p3735
I1902
sS'inbox'
p3736
I5897
sS'dreaming'
p3737
I5658
sS'appears'
p3738
I2603
sS'hysterical'
p3739
I5358
sS'spicy'
p3740
I5036
sS'strikes'
p3741
I4019
sS'belated'
p3742
I4689
sS'spice'
p3743
I2945
sS'romantic'
p3744
I6000
sS"wasn't"
p3745
I386
sS'leaked'
p3746
I4866
sS'videos'
p3747
I1214
sS'deep'
p3748
I1050
sS'fellow'
p3749
I2511
sS'imagination'
p3750
I5970
sS'file'
p3751
I3346
sS'girlfriend'
p3752
I2604
sS'lifetime'
p3753
I3516
sS'syrian'
p3754
I2856
sS'film'
p3755
I1064
sS'fill'
p3756
I3006
sS'again'
p3757
I185
sS'drivers'
p3758
I3179
sS'field'
p3759
I1281
sS'obsessed'
p3760
I2129
sS'students'
p3761
I1456
sS'\xf0\x9f\xa4\x98\xf0\x9f\x8f\xbd'
p3762
I5986
sS'\xf0\x9f\xa4\x98\xf0\x9f\x8f\xbc'
p3763
I4286
sS'important'
p3764
I643
sS"she's"
p3765
I283
sS'chris'
p3766
I1115
sS'remote'
p3767
I3738
sS'buffalo'
p3768
I3759
sS'u'
p3769
I76
sS'alright'
p3770
I1362
sS'leads.com'
p3771
I2182
sS'starting'
p3772
I734
sS'represent'
p3773
I3599
sS'liar'
p3774
I1198
sS'forget'
p3775
I661
sS'vile'
p3776
I5274
sS'dollar'
p3777
I2931
sS'.....'
p3778
I565
sS'talks'
p3779
I1817
sS'children'
p3780
I1039
sS'emily'
p3781
I5119
sS'imma'
p3782
I1695
sS'they\xe2\x80\x99re'
p3783
I3366
sS'enjoying'
p3784
I1978
sS'sitting'
p3785
I1071
sS'fall'
p3786
I587
sS'winning'
p3787
I944
sS'difference'
p3788
I1012
sS'alien'
p3789
I4339
sS'hyd'
p3790
I2694
sS'celebrity'
p3791
I4910
sS'saudi'
p3792
I2988
sS'20th'
p3793
I5710
sS'neighborhood'
p3794
I2498
sS'burger'
p3795
I3108
sS'zero'
p3796
I1477
sS'titles'
p3797
I5381
sS'perspective'
p3798
I2781
sS'lawyer'
p3799
I3708
sS'further'
p3800
I2134
sS'psycho'
p3801
I5842
sS'90s'
p3802
I3547
sS'abc'
p3803
I4529
sS'stood'
p3804
I5007
sS'abt'
p3805
I1743
sS'tribute'
p3806
I4492
sS'public'
p3807
I691
sS'movement'
p3808
I1192
sS'tattoos'
p3809
I5573
sS"c'mon"
p3810
I4593
sS'hmmmm'
p3811
I5296
sS'table'
p3812
I1618
sS'campaigns'
p3813
I5249
sS'speeches'
p3814
I5811
sS'bible'
p3815
I3047
sS'airport'
p3816
I1643
sS'published'
p3817
I3603
sS'mentions'
p3818
I2100
sS'transit'
p3819
I3328
sS'africa'
p3820
I2677
sS'\xf0\x9f\x99\x88'
p3821
I2880
sS'4the'
p3822
I2165
sS'you\xe2\x80\x99re'
p3823
I1510
sS'\xf0\x9f\x99\x8c'
p3824
I2916
sS'\xf0\x9f\x99\x8f'
p3825
I2917
sS'\xf0\x9f\x99\x81'
p3826
I4967
sS'\xf0\x9f\x99\x82'
p3827
I2220
sS'\xf0\x9f\x99\x83'
p3828
I988
sS'\xf0\x9f\x99\x84'
p3829
I558
sS'eye'
p3830
I1224
sS'texting'
p3831
I3532
sS'two'
p3832
I233
sS'comparing'
p3833
I3956
sS'stolen'
p3834
I4652
sS'landed'
p3835
I4888
sS"ain't"
p3836
I428
sS'particular'
p3837
I3436
sS'town'
p3838
I1079
sS'none'
p3839
I1262
sS'hour'
p3840
I711
sS'recall'
p3841
I2969
sS'sucks'
p3842
I870
sS'dev'
p3843
I5243
sS'remain'
p3844
I4179
sS'dem'
p3845
I2614
sS'def'
p3846
I986
sS'shark'
p3847
I4751
sS'share'
p3848
I632
sS'lolol'
p3849
I3319
sS'minimum'
p3850
I4784
sS'numbers'
p3851
I1411
sS'sharp'
p3852
I4673
sS'!'
p3853
I9
sS'pence'
p3854
I2817
sS'needs'
p3855
I362
sS'awkward'
p3856
I2626
sS'comfort'
p3857
I4550
sS'maps'
p3858
I5520
sS'advice'
p3859
I1706
sS'questioning'
p3860
I4602
sS'blood'
p3861
I1527
sS'coming'
p3862
I269
sS'response'
p3863
I996
sS'brady'
p3864
I3043
sS"that'd"
p3865
I4105
sS'tweeting'
p3866
I1027
sS'eats'
p3867
I3856
sS'dragon'
p3868
I4261
sS'responsibility'
p3869
I2893
sS'lmfaooooo'
p3870
I5342
sS'pleasure'
p3871
I1498
sS'\xf0\x9f\x98\xa9\xf0\x9f\x98\xa9\xf0\x9f\x98\xa9'
p3872
I5536
sS'playing'
p3873
I391
sS"that's"
p3874
I70
sS'radar'
p3875
I5120
sS'through'
p3876
I372
sS'existence'
p3877
I4152
sS'suffer'
p3878
I5057
sS'24'
p3879
I1921
sS'messed'
p3880
I3105
sS'26'
p3881
I3957
sS'27'
p3882
I4544
sS'20'
p3883
I894
sS'21'
p3884
I2172
sS'22'
p3885
I3027
sS'23'
p3886
I3887
sS'28'
p3887
I4056
sS'29'
p3888
I3548
sS'late'
p3889
I544
sS'penn'
p3890
I4229
sS'hurting'
p3891
I4447
sS'good'
p3892
I57
sS'disrespectful'
p3893
I4403
sS'seeking'
p3894
I5008
sS'walls'
p3895
I4922
sS'complain'
p3896
I2794
sS'viewers'
p3897
I5371
sS'mystery'
p3898
I4262
sS'easily'
p3899
I1746
sS'pregnant'
p3900
I3677
sS'drake'
p3901
I2467
sS'gender'
p3902
I3173
sS'repeating'
p3903
I5750
sS'2k'
p3904
I2660
sS'everyone'
p3905
I243
sS'mental'
p3906
I2413
sS'house'
p3907
I404
sS'fish'
p3908
I1966
sS'hard'
p3909
I316
sS'idea'
p3910
I420
sS'engaging'
p3911
I5587
sS'connect'
p3912
I2518
sS'portland'
p3913
I4739
sS'comic'
p3914
I2757
sS'initiatives'
p3915
I5531
sS'flower'
p3916
I5240
sS'funding'
p3917
I3269
sS'childish'
p3918
I4137
sS'acting'
p3919
I1837
sS"they'll"
p3920
I1380
sS'print'
p3921
I3084
sS'humble'
p3922
I5917
sS'bully'
p3923
I2914
sS'pathetic'
p3924
I1963
sS'mmm'
p3925
I5629
sS'giveaway'
p3926
I4753
sS'members'
p3927
I1974
sS'follower'
p3928
I5260
sS'backed'
p3929
I4535
sS'beginning'
p3930
I1976
sS'benefits'
p3931
I3449
sS'computers'
p3932
I5088
sS'dont'
p3933
I453
sS'done'
p3934
I299
sS'heights'
p3935
I5265
sS'divorce'
p3936
I3414
sS'5th'
p3937
I2438
sS'least'
p3938
I369
sS'paint'
p3939
I3126
sS'statement'
p3940
I1132
sS'mama'
p3941
I2801
sS'rates'
p3942
I4373
sS'park'
p3943
I941
sS'part'
p3944
I357
sS'livestream'
p3945
I5943
sS'doctors'
p3946
I3867
sS'trolls'
p3947
I3339
sS'believe'
p3948
I282
sS'b'
p3949
I630
sS'gotten'
p3950
I1612
sS'youth'
p3951
I2896
sS'2020'
p3952
I5992
sS'supposed'
p3953
I896
sS'treated'
p3954
I4062
sS'outta'
p3955
I1905
sS'nominee'
p3956
I3275
sS'ages'
p3957
I3555
sS'hangout'
p3958
I5330
sS'confirms'
p3959
I4896
sS'orders'
p3960
I3833
sS'mountain'
p3961
I3808
sS'built'
p3962
I1987
sS'dancing'
p3963
I2558
sS'couch'
p3964
I3313
sS'majority'
p3965
I2330
sS'build'
p3966
I1165
sS'commentary'
p3967
I3762
sS'eggs'
p3968
I3736
sS'chart'
p3969
I4785
sS'most'
p3970
I210
sS'charm'
p3971
I5162
sS'significant'
p3972
I4343
sS'services'
p3973
I2446
sS'extremely'
p3974
I1678
sS'weigh'
p3975
I4743
sS'joining'
p3976
I1896
sS'thomas'
p3977
I3127
sS'particularly'
p3978
I5186
sS'businesses'
p3979
I3367
sS'fine'
p3980
I588
sS'find'
p3981
I259
sS'giant'
p3982
I2031
sS'nervous'
p3983
I2279
sS'ruin'
p3984
I2820
sS'poppin'
p3985
I5270
sS'idiots'
p3986
I2076
sS'8'
p3987
I735
sS'beyonc\xc3\xa9'
p3988
I4292
sS'permission'
p3989
I5682
sS'luke'
p3990
I3829
sS'express'
p3991
I2977
sS'cheaper'
p3992
I3682
sS'courage'
p3993
I5199
sS'remove'
p3994
I2670
sS'common'
p3995
I1300
sS'restaurants'
p3996
I5163
sS'vine'
p3997
I4192
sS'lion'
p3998
I4138
sS'individual'
p3999
I3542
sS'retweet'
p4000
I1209
sS'expert'
p4001
I3164
sS'visiting'
p4002
I3078
sS'please'
p4003
I182
sS'fans'
p4004
I595
sS'burned'
p4005
I5899
sS'champagne'
p4006
I5846
sS'rosie'
p4007
I5304
sS'historical'
p4008
I5156
sS'pissed'
p4009
I2063
sS'reverse'
p4010
I5143
sS'restaurant'
p4011
I2520
sS'annual'
p4012
I4568
sS'foreign'
p4013
I1906
sS'alot'
p4014
I3285
sS'baltimore'
p4015
I5134
sS'!!!!!!!'
p4016
I2999
sS'point'
p4017
I327
sS'simple'
p4018
I1259
sS'rad'
p4019
I4476
sS'simply'
p4020
I1767
sS'throughout'
p4021
I4052
sS'expensive'
p4022
I1958
sS'hannity'
p4023
I2825
sS'raise'
p4024
I2122
sS'create'
p4025
I1616
sS'secret'
p4026
I1356
sS'dropping'
p4027
I2263
sS'meeting'
p4028
I973
sS'gay'
p4029
I1200
sS'gas'
p4030
I1714
sS'gap'
p4031
I5058
sS'understand'
p4032
I509
sS'prices'
p4033
I3128
sS'politician'
p4034
I3080
sS'survivor'
p4035
I5637
sS'raw'
p4036
I2380
sS'solid'
p4037
I1646
sS'bill'
p4038
I633
sS'convo'
p4039
I2562
sS'elections'
p4040
I3963
sS'replaced'
p4041
I4278
sS'fun'
p4042
I287
sS'century'
p4043
I3594
sS'itself'
p4044
I1722
sS'italy'
p4045
I4493
sS'proved'
p4046
I4099
sS'development'
p4047
I1990
sS'keys'
p4048
I4193
sS'yesterday'
p4049
I637
sS'moment'
p4050
I693
sS'purpose'
p4051
I1911
sS'task'
p4052
I5711
sS'spent'
p4053
I1199
sS'y'
p4054
I1804
sS'entry'
p4055
I3694
sS'spend'
p4056
I1267
sS'i\xe2\x80\x99m'
p4057
I728
sS'\xe2\x9d\xa4'
p4058
I153
sS'ceo'
p4059
I2312
sS'i\xe2\x80\x99d'
p4060
I4385
sS'boutta'
p4061
I5164
sS'shape'
p4062
I3122
sS'alternative'
p4063
I3896
sS'injuries'
p4064
I3391
sS'letting'
p4065
I1721
sS'cut'
p4066
I839
sS'cus'
p4067
I3858
sS'cup'
p4068
I1764
sS'hated'
p4069
I2523
sS'cuz'
p4070
I775
sS'source'
p4071
I1149
sS'homies'
p4072
I5510
sS'snap'
p4073
I1299
sS'cum'
p4074
I5631
sS'excited'
p4075
I419
sS'hates'
p4076
I1846
sS'hater'
p4077
I4206
sS'bin'
p4078
I5812
sS'bio'
p4079
I2526
sS'big'
p4080
I236
sS'mins'
p4081
I1272
sS'matters'
p4082
I1774
sS'biz'
p4083
I4010
sS'bit'
p4084
I609
sS'knock'
p4085
I2932
sS'follows'
p4086
I4549
sS'killary'
p4087
I4952
sS'google'
p4088
I808
sS'often'
p4089
I1045
sS'absolutely'
p4090
I597
sS'magnificent'
p4091
I4674
sS'back'
p4092
I111
sS'examples'
p4093
I3952
sS'mirror'
p4094
I2692
sS'server'
p4095
I2722
sS'ourselves'
p4096
I3942
sS'scale'
p4097
I3556
sS'contacts'
p4098
I5704
sS'pet'
p4099
I3543
sS'decision'
p4100
I1470
sS'per'
p4101
I1492
sS'pen'
p4102
I4465
sS'connecting'
p4103
I5610
sS'pee'
p4104
I5169
sS'epic'
p4105
I2154
sS'laughing'
p4106
I1154
sS'patient'
p4107
I3975
sS'\xe2\x84\xa2'
p4108
I5507
sS'300'
p4109
I5289
sS'ufc'
p4110
I4985
sS'continuing'
p4111
I5026
sS'use'
p4112
I250
sS'metaphor'
p4113
I4961
sS'8pm'
p4114
I4947
sS'mrs.'
p4115
I4308
sS'drama'
p4116
I2599
sS'beans'
p4117
I3598
sS'hahahah'
p4118
I4394
sS'jimmy'
p4119
I1795
sS'folsom'
p4120
I5310
sS'steven'
p4121
I4296
sS'lesson'
p4122
I3118
sS'delusional'
p4123
I3290
sS'&lt;'
p4124
I537
sS'forward'
p4125
I576
sS'bored'
p4126
I2383
sS'opponent'
p4127
I5364
sS'invite'
p4128
I1472
sS'immigration'
p4129
I2551
sS'boys'
p4130
I875
sS'yesssss'
p4131
I5833
sS'getty'
p4132
I5661
sS'hopes'
p4133
I3742
sS'\xe2\x99\xa5'
p4134
I3579
sS'\xe2\x99\xa1'
p4135
I4386
sS'directed'
p4136
I4592
sS'planet'
p4137
I2235
sS"tomorrow's"
p4138
I3905
sS'constant'
p4139
I3647
sS'metal'
p4140
I3713
sS'single'
p4141
I697
sS'cure'
p4142
I4635
sS'cafe'
p4143
I4336
sS'%'
p4144
I2641
sS'excuses'
p4145
I3505
sS'explaining'
p4146
I4867
sS'favourite'
p4147
I3252
sS'prepared'
p4148
I1945
sS'lens'
p4149
I5955
sS"guy's"
p4150
I5417
sS'utterly'
p4151
I5297
sS'cooker'
p4152
I5230
sS'cooked'
p4153
I4472
sS'2000'
p4154
I4932
sS'2007'
p4155
I5324
sS'2008'
p4156
I2477
sS'2009'
p4157
I5770
sS'jason'
p4158
I2574
sS'hint'
p4159
I4376
sS'peanut'
p4160
I4003
sS'helps'
p4161
I1384
sS'queen'
p4162
I1254
sS'putting'
p4163
I1190
sS'entire'
p4164
I731
sS'salad'
p4165
I3823
sS'knight'
p4166
I5242
sS'shock'
p4167
I3362
sS'min'
p4168
I1873
sS'havent'
p4169
I3843
sS'joey'
p4170
I4328
sS'uncomfortable'
p4171
I3298
sS'depression'
p4172
I5429
sS'ooo'
p4173
I5795
sS'chicago'
p4174
I1459
sS'giving'
p4175
I759
sS'anthem'
p4176
I2440
sS'access'
p4177
I1800
sS'exercise'
p4178
I4770
sS'3d'
p4179
I5089
sS'body'
p4180
I890
sS'sharks'
p4181
I5700
sS'exchange'
p4182
I3868
sS'packing'
p4183
I5231
sS'healing'
p4184
I5620
sS'others'
p4185
I761
sS'sing'
p4186
I2192
sS'safer'
p4187
I5232
sS'extreme'
p4188
I3574
sS'birther'
p4189
I969
sS'talent'
p4190
I2216
sS'31'
p4191
I5144
sS'30'
p4192
I834
sS'35'
p4193
I4068
sS'honor'
p4194
I1482
sS'named'
p4195
I1690
sS'presidents'
p4196
I5496
sS'private'
p4197
I1604
sS'names'
p4198
I1996
sS'scandal'
p4199
I3639
sS"hillary's"
p4200
I1009
sS'he\xe2\x80\x99s'
p4201
I2761
sS'themselves'
p4202
I1221
sS'upcoming'
p4203
I3976
sS'trail'
p4204
I4234
sS'train'
p4205
I760
sS'ashamed'
p4206
I3423
sS'nypd'
p4207
I3525
sS'subscription'
p4208
I5705
sS'account'
p4209
I680
sS'f'
p4210
I2114
sS'unreal'
p4211
I2958
sS'obvious'
p4212
I1869
sS'praise'
p4213
I3830
sS'smear'
p4214
I5896
sS'closing'
p4215
I3277
sS'didnt'
p4216
I1273
sS'snacks'
p4217
I4470
sS'native'
p4218
I3166
sS'democracy'
p4219
I3038
sS'lame'
p4220
I2563
sS'holds'
p4221
I3462
sS'winners'
p4222
I3751
sS'stock'
p4223
I2625
sS'profile'
p4224
I1707
sS'buildings'
p4225
I5728
sS'fran'
p4226
I5082
sS'lmfaoo'
p4227
I2827
sS'bothered'
p4228
I5418
sS'chasing'
p4229
I5822
sS'lines'
p4230
I2311
sS'chief'
p4231
I1959
sS'addiction'
p4232
I4690
sS'despite'
p4233
I2351
sS'nasty'
p4234
I2103
sS'galaxy'
p4235
I4710
sS'bunch'
p4236
I1349
sS'le'
p4237
I5559
sS'la'
p4238
I862
sS'labor'
p4239
I4041
sS'willing'
p4240
I2233
sS'criminal'
p4241
I1427
sS'dad'
p4242
I791
sS'greater'
p4243
I3834
sS'dam'
p4244
I5907
sS'dan'
p4245
I3174
sS'spell'
p4246
I2693
sS'dat'
p4247
I3220
sS'mention'
p4248
I1315
sS'cutting'
p4249
I3203
sS'day'
p4250
I112
sS'february'
p4251
I5396
sS"ya'll"
p4252
I4264
sS'experienced'
p4253
I3546
sS'.........'
p4254
I5279
sS'sexual'
p4255
I2109
sS'popping'
p4256
I5780
sS'matt'
p4257
I1798
sS'defend'
p4258
I2588
sS'mate'
p4259
I2042
sS'announced'
p4260
I2812
sS'jessica'
p4261
I4619
sS'frank'
p4262
I2791
sS'receipts'
p4263
I5762
sS'kadondo'
p4264
I5219
sS'yard'
p4265
I4046
sS'you\xe2\x80\x99ve'
p4266
I5493
sS'retail'
p4267
I5590
sS'south'
p4268
I1378
sS'finest'
p4269
I4665
sS'philadelphia'
p4270
I5652
sS'embarrassed'
p4271
I3383
sS'puppet'
p4272
I5431
sS'reached'
p4273
I4047
sS'ancient'
p4274
I5145
sS'sadly'
p4275
I1686
sS'monkey'
p4276
I5200
sS'hilary'
p4277
I2753
sS'messing'
p4278
I5729
sS'liquor'
p4279
I5878
sS'benghazi'
p4280
I3306
sS'gear'
p4281
I3417
sS'explanation'
p4282
I3927
sS'nobody'
p4283
I762
sS'ipad'
p4284
I4768
sS'loved'
p4285
I692
sS'slack'
p4286
I4314
sS'heh'
p4287
I3330
sS'loves'
p4288
I1106
sS'lover'
p4289
I5251
sS'visited'
p4290
I4368
sS'design/development'
p4291
I5971
sS'comfortable'
p4292
I3500
sS'have'
p4293
I27
sS'throat'
p4294
I4442
sS'apparently'
p4295
I783
sS'dallas'
p4296
I3863
sS'mic'
p4297
I2743
sS'mid'
p4298
I3977
sS'parks'
p4299
I4748
sS'mix'
p4300
I2049
sS'concerns'
p4301
I4388
sS'unless'
p4302
I932
sS"where's"
p4303
I1074
sS'sfo'
p4304
I5481
sS'eight'
p4305
I5306
sS'payment'
p4306
I5442
sS'request'
p4307
I2579
sS'disease'
p4308
I3911
sS'1,000'
p4309
I5922
sS'absurd'
p4310
I4744
sS'skinny'
p4311
I4668
sS'normally'
p4312
I4532
sS'text'
p4313
I844
sS'charles'
p4314
I4159
sS'traitor'
p4315
I4711
sS'portfolio'
p4316
I1808
sS'supporter'
p4317
I1572
sS'staff'
p4318
I2127
sS'inspiring'
p4319
I3048
sS'knowledge'
p4320
I2365
sS'controls'
p4321
I5645
sS'breitbart'
p4322
I5445
sS'satan'
p4323
I5225
sS'regularly'
p4324
I5546
sS'pull'
p4325
I1129
sS'beat'
p4326
I624
sS'photography'
p4327
I5432
sS'bear'
p4328
I2487
sS'bean'
p4329
I4649
sS'perfection'
p4330
I4786
sS'timing'
p4331
I3567
sS'areas'
p4332
I3953
sS"putin's"
p4333
I4827
sS'calling'
p4334
I722
sS'including'
p4335
I1642
sS'fixed'
p4336
I2072
sS'exists'
p4337
I3575
sS'\xf0\x9f\x98\xa9\xf0\x9f\x98\xa9'
p4338
I5072
sS'national'
p4339
I828
sS'interview'
p4340
I893
sS'reform'
p4341
I4997
sS'routine'
p4342
I5027
sS'progress'
p4343
I2246
sS'spotify'
p4344
I3249
sS'deliver'
p4345
I3017
sS'legit'
p4346
I1282
sS'instant'
p4347
I4803
sS'joke'
p4348
I679
sS'taking'
p4349
I497
sS'equal'
p4350
I3088
sS'trips'
p4351
I4457
sS'moderators'
p4352
I5359
sS'busted'
p4353
I5009
sS'passing'
p4354
I2678
sS'retweets'
p4355
I3846
sS'glorious'
p4356
I3989
sS'otherwise'
p4357
I1547
sS'comment'
p4358
I1076
sS'relevant'
p4359
I2321
sS'laugh'
p4360
I1107
sS'citizenship'
p4361
I3699
sS'johnny'
p4362
I4053
sS'tremendous'
p4363
I4847
sS"it's"
p4364
I40
sS'tyler'
p4365
I4194
sS'certain'
p4366
I1975
sS'proposal'
p4367
I5847
sS'kitchen'
p4368
I2898
sS"it'd"
p4369
I3561
sS'define'
p4370
I5659
sS'received'
p4371
I2141
sS'climate'
p4372
I2432
sS'finished'
p4373
I1347
sS'bull'
p4374
I3623
sS'general'
p4375
I1375
sS'volunteer'
p4376
I4842
sS'homer'
p4377
I5893
sS'homes'
p4378
I4035
sS'bye'
p4379
I1227
sS'plain'
p4380
I4301
sS'nd'
p4381
I5458
sS'appearance'
p4382
I3686
sS'value'
p4383
I1970
sS'frustrating'
p4384
I5038
sS'almost'
p4385
I454
sS'linkedin'
p4386
I5256
sS'helped'
p4387
I1575
sS'arabia'
p4388
I4103
sS'partner'
p4389
I2888
sS')'
p4390
I125
sS'administration'
p4391
I4302
sS'powell'
p4392
I5298
sS'injured'
p4393
I2193
sS'practice'
p4394
I1516
sS'reporting'
p4395
I1782
sS'ios'
p4396
I1332
sS'bullying'
p4397
I5115
sS'ion'
p4398
I5360
sS'sisters'
p4399
I3769
sS'giuliani'
p4400
I3675
sS'center'
p4401
I1630
sS'weapon'
p4402
I4030
sS'seth'
p4403
I5286
sS'thought'
p4404
I204
sS'wyd'
p4405
I5318
sS'oops'
p4406
I2444
sS'sets'
p4407
I4215
sS'position'
p4408
I1784
sS'muscle'
p4409
I5900
sS'latest'
p4410
I1233
sS'stores'
p4411
I2970
sS'executive'
p4412
I5099
sS'domestic'
p4413
I4700
sS'seats'
p4414
I2483
sS'tone'
p4415
I4147
sS'ads'
p4416
I2471
sS'lake'
p4417
I4071
sS'bench'
p4418
I3138
sS'add'
p4419
I781
sS'citizen'
p4420
I2948
sS'ohhh'
p4421
I4495
sS'smart'
p4422
I786
sS'tests'
p4423
I4642
sS'worlds'
p4424
I4370
sS'fyi'
p4425
I2580
sS'\xf0\x9f\x87\xba\xf0\x9f\x87\xb8'
p4426
I2116
sS'like'
p4427
I36
sS'success'
p4428
I1935
sS'journalism'
p4429
I2662
sS'admitted'
p4430
I3441
sS'journalist'
p4431
I3793
sS'chick'
p4432
I2881
sS'works'
p4433
I707
sS'soft'
p4434
I2623
sS'italian'
p4435
I3869
sS'authority'
p4436
I5034
sS'hair'
p4437
I525
sS'recommendation'
p4438
I5751
sS'proper'
p4439
I3186
sS'happens'
p4440
I733
sS'est'
p4441
I4120
sS'esp'
p4442
I3683
sS'assuming'
p4443
I2863
sS'screwed'
p4444
I3388
sS'noise'
p4445
I4086
sS'host'
p4446
I2087
sS'although'
p4447
I2199
sS'worthy'
p4448
I4585
sS'&amp;'
p4449
I63
sS'panel'
p4450
I1894
sS':-('
p4451
I3246
sS':-)'
p4452
I719
sS'actual'
p4453
I856
sS':-/'
p4454
I5752
sS'blessings'
p4455
I4570
sS'!!'
p4456
I79
sS'ways'
p4457
I1324
sS'conway'
p4458
I4348
sS'socks'
p4459
I2819
sS'playoff'
p4460
I3447
sS'doesnt'
p4461
I2236
sS'female'
p4462
I1779
sS'!?'
p4463
I1152
sS'wack'
p4464
I3716
sS'yorkers'
p4465
I4079
sS'biggest'
p4466
I1103
sS'buy'
p4467
I434
sS'chatting'
p4468
I4352
sS'bus'
p4469
I1513
sS'coke'
p4470
I2089
sS'but'
p4471
I30
sS'reminds'
p4472
I1675
sS'bum'
p4473
I3301
sS'editing'
p4474
I4571
sS'bug'
p4475
I2989
sS'bud'
p4476
I2040
sS'wise'
p4477
I2813
sS'glory'
p4478
I4437
sS'dangerous'
p4479
I1491
sS'j'
p4480
I1848
sS'flip'
p4481
I2655
sS'minutes'
p4482
I584
sS'supreme'
p4483
I2937
sS'replying'
p4484
I5823
sS'pin'
p4485
I4508
sS'deaths'
p4486
I4911
sS'pic'
p4487
I539
sS'romney'
p4488
I4582
sS'pie'
p4489
I3086
sS'pig'
p4490
I3363
sS'shooting'
p4491
I1093
sS'pit'
p4492
I3661
sS'campus'
p4493
I2221
sS'48'
p4494
I5944
sS'dressed'
p4495
I3081
sS'45'
p4496
I2795
sS'claiming'
p4497
I3743
sS'detail'
p4498
I4481
sS'40'
p4499
I1862
sS'dresses'
p4500
I4740
sS'\xe2\x80\xa2'
p4501
I4978
sS'\xe2\x80\xa6'
p4502
I106
sS'christians'
p4503
I3501
sS'goin'
p4504
I3172
sS'\xe2\x80\x93'
p4505
I1671
sS'\xe2\x80\x94'
p4506
I790
sS'\xe2\x80\x99'
p4507
I740
sS'\xe2\x80\x98'
p4508
I961
sS'\xe2\x80\x9d'
p4509
I473
sS'\xe2\x80\x9c'
p4510
I441
sS'4k'
p4511
I5611
sS'yell'
p4512
I5908
sS'baked'
p4513
I4897
sS'8th'
p4514
I2600
sS'limited'
p4515
I2680
sS'hats'
p4516
I3772
sS'sleep'
p4517
I583
sS'hating'
p4518
I3143
sS'hate'
p4519
I270
sS'poorly'
p4520
I4158
sS'feeding'
p4521
I5100
sS'founder'
p4522
I4656
sS'paris'
p4523
I3007
sS'tweet'
p4524
I238
sS'under'
p4525
I524
sS'pride'
p4526
I4275
sS'@'
p4527
I484
sS'risk'
p4528
I2538
sS'rise'
p4529
I3034
sS'every'
p4530
I201
sS'jack'
p4531
I1822
sS'monkeys'
p4532
I5566
sS'school'
p4533
I361
sS'venue'
p4534
I5508
sS'commute'
p4535
I4936
sS'enjoy'
p4536
I483
sS'leaders'
p4537
I2366
sS'consistent'
p4538
I4904
sS'direct'
p4539
I2529
sS'nail'
p4540
I4683
sS'street'
p4541
I818
sS'blue'
p4542
I899
sS'hide'
p4543
I2203
sS'christ'
p4544
I2674
sS'poison'
p4545
I5275
sS'endorse'
p4546
I3085
sS'disney'
p4547
I2550
sS'pats'
p4548
I3465
sS'kicked'
p4549
I2609
sS'hundreds'
p4550
I3882
sS'studio'
p4551
I2496
sS'path'
p4552
I3329
sS'voice'
p4553
I1002
sS'hunting'
p4554
I4928
sS'forum'
p4555
I5369
sS'leaves'
p4556
I2584
sS'changed'
p4557
I1085
sS'settled'
p4558
I5632
sS'feelings'
p4559
I1653
sS'patience'
p4560
I4337
sS'riots'
p4561
I5365
sS'would'
p4562
I80
sS'hospital'
p4563
I3068
sS'tl'
p4564
I2035
sS'chargers'
p4565
I4733
sS'asses'
p4566
I4675
sS'preview'
p4567
I3162
sS'breathe'
p4568
I3318
sS'phony'
p4569
I5774
sS'phone'
p4570
I425
sS'excellent'
p4571
I1119
sS'must'
p4572
I334
sS'shoot'
p4573
I1034
sS'mf'
p4574
I5047
sS'join'
p4575
I567
sS'mo'
p4576
I3256
sS'mi'
p4577
I5382
sS'mt'
p4578
I4315
sS'ms'
p4579
I3568
sS'henry'
p4580
I4912
sS'my'
p4581
I20
sS'shook'
p4582
I2666
sS'estate'
p4583
I4496
sS'keep'
p4584
I229
sS'guarantee'
p4585
I4650
sS'ceremony'
p4586
I5522
sS'!!!'
p4587
I123
sS'returning'
p4588
I5806
sS'writers'
p4589
I3831
sS'toxic'
p4590
I5712
sS'gate'
p4591
I3959
sS'charging'
p4592
I4230
sS'badly'
p4593
I2912
sS'description'
p4594
I4855
sS'mess'
p4595
I1268
sS'demanding'
p4596
I5647
sS'jumping'
p4597
I3945
sS'danny'
p4598
I4254
sS'upside'
p4599
I4417
sS'ultimate'
p4600
I3506
sS'enter'
p4601
I2773
sS'harlem'
p4602
I5441
sS'over'
p4603
I139
sS'london'
p4604
I1898
sS'ima'
p4605
I1162
sS'40%'
p4606
I5263
sS'hypocrisy'
p4607
I5684
sS'expectations'
p4608
I3067
sS'imo'
p4609
I1765
sS'writing'
p4610
I1072
sS'destroyed'
p4611
I2808
sS'edits'
p4612
I5028
sS'fade'
p4613
I4360
sS'400'
p4614
I3340
sS'iowa'
p4615
I5264
sS'30th'
p4616
I5690
sS'bouta'
p4617
I5257
sS'alex'
p4618
I2303
sS'potatoes'
p4619
I4852
sS'chuck'
p4620
I3442
sS'detroit'
p4621
I4354
sS'explode'
p4622
I5361
sS'victory'
p4623
I2949
sS'each'
p4624
I617
sS'signing'
p4625
I3227
sS'wentz'
p4626
I3412
sS'group'
p4627
I831
sS'celebrating'
p4628
I2482
sS'saturday'
p4629
I752
sS'gon'
p4630
I2390
sS'driving'
p4631
I1253
sS'god'
p4632
I280
sS'washed'
p4633
I4207
sS'laid'
p4634
I5781
sS'got'
p4635
I88
sS'gov'
p4636
I2474
sS'gop'
p4637
I1131
sS'arizona'
p4638
I4248
sS'rail'
p4639
I5909
sS'free'
p4640
I345
sS'rain'
p4641
I1582
sS'wanted'
p4642
I557
sS'days'
p4643
I346
sS'priorities'
p4644
I5450
sS'outfits'
p4645
I4914
sS'filter'
p4646
I3146
sS'heck'
p4647
I2463
sS'\xf0\x9f\x99\x84\xf0\x9f\x99\x84'
p4648
I5209
sS'onto'
p4649
I2788
sS'already'
p4650
I215
sS'primary'
p4651
I2889
sS'hearing'
p4652
I1334
sS'fantasy'
p4653
I1415
sS'sober'
p4654
I5170
sS'\xf0\x9f\x91\x8f\xf0\x9f\x8f\xbb'
p4655
I5860
sS'toy'
p4656
I5091
sS'\xf0\x9f\x91\x8f\xf0\x9f\x8f\xbc'
p4657
I5325
sS'sarcasm'
p4658
I3895
sS'top'
p4659
I461
sS'fiction'
p4660
I4384
sS'\xf0\x9f\x91\x80'
p4661
I1063
sS'ton'
p4662
I3039
sS'too'
p4663
I65
sS'tom'
p4664
I1685
sS'\xf0\x9f\x91\x89'
p4665
I5408
sS'\xf0\x9f\x91\x8c'
p4666
I2870
sS'\xf0\x9f\x91\x8d'
p4667
I1625
sS'\xf0\x9f\x91\x8f'
p4668
I3293
sS'urban'
p4669
I3790
sS'murder'
p4670
I1579
sS'\xf0\x9f\x98\x98\xf0\x9f\x98\x98'
p4671
I4240
sS'tool'
p4672
I2475
sS'serve'
p4673
I2628
sS'took'
p4674
I467
sS'wrapped'
p4675
I5918
sS'western'
p4676
I4004
sS'nominate'
p4677
I3702
sS'immigrants'
p4678
I2553
sS'classes'
p4679
I2247
sS'h.w.'
p4680
I5782
sS'10th'
p4681
I5821
sS'bridge'
p4682
I2158
sS'lbs'
p4683
I5010
sS'fashion'
p4684
I1679
sS'ran'
p4685
I1509
sS'talking'
p4686
I306
sS'rat'
p4687
I4063
sS'rap'
p4688
I2723
sS'ohhhh'
p4689
I4636
sS'ray'
p4690
I3794
sS'-'
p4691
I99
sS'snow'
p4692
I3617
sS'brandon'
p4693
I4026
sS'client'
p4694
I4630
sS'laughed'
p4695
I2902
sS'rides'
p4696
I6001
sS'though'
p4697
I216
sS'plenty'
p4698
I1749
sS'glow'
p4699
I5743
sS'treats'
p4700
I4666
sS'flow'
p4701
I4166
sS'entertaining'
p4702
I3748
sS'bait'
p4703
I4998
sS'inspire'
p4704
I5201
sS'random'
p4705
I1441
sS'pops'
p4706
I4175
sS'colors'
p4707
I2469
sS'radio'
p4708
I1361
sS'solutions'
p4709
I4646
sS'earth'
p4710
I1593
sS'situations'
p4711
I5923
sS'delays'
p4712
I2776
sS'minnesota'
p4713
I3562
sS'photo'
p4714
I529
sS'announce'
p4715
I2844
sS'chipotle'
p4716
I3780
sS'oct'
p4717
I1889
sS'geez'
p4718
I5834
sS'sunglasses'
p4719
I5730
sS'watch'
p4720
I180
sS'amazon'
p4721
I2104
sS'wedding'
p4722
I1530
sS'report'
p4723
I989
sS'haiti'
p4724
I5698
sS'countries'
p4725
I1856
sS'twice'
p4726
I1360
sS'shots'
p4727
I1772
sS'habit'
p4728
I5694
sS'nut'
p4729
I4279
sS'resist'
p4730
I5987
sS'corrupt'
p4731
I1319
sS'disturbing'
p4732
I4199
sS'jerseys'
p4733
I4211
sS'capacity'
p4734
I4923
sS'finger'
p4735
I3351
sS'hopefully'
p4736
I814
sS'approach'
p4737
I3434
sS'adding'
p4738
I2943
sS'weak'
p4739
I1431
sS'however'
p4740
I2073
sS'boss'
p4741
I1742
sS'wear'
p4742
I709
sS'news'
p4743
I367
sS'improve'
p4744
I4271
sS'faced'
p4745
I5777
sS'protect'
p4746
I1805
sS'fault'
p4747
I1552
sS'jelly'
p4748
I5579
sS'players'
p4749
I1096
sS'games'
p4750
I560
sS'faces'
p4751
I2454
sS'birtherism'
p4752
I2436
sS'trust'
p4753
I705
sS'hitler'
p4754
I2461
sS'conference'
p4755
I1537
sS'bathroom'
p4756
I2183
sS'beef'
p4757
I2719
sS'binge'
p4758
I4882
sS'been'
p4759
I104
sS'quickly'
p4760
I2157
sS'confident'
p4761
I3645
sS'beer'
p4762
I1066
sS'belongs'
p4763
I4488
sS'expected'
p4764
I2037
sS'drugs'
p4765
I1951
sS'republicans'
p4766
I1913
sS'search'
p4767
I1810
sS'catch'
p4768
I675
sS'fallon'
p4769
I3392
sS'n'
p4770
I619
sS'dept'
p4771
I5276
sS'teachers'
p4772
I3356
sS'stopping'
p4773
I3458
sS'cracked'
p4774
I5763
sS'experts'
p4775
I3103
sS'experience'
p4776
I716
sS'nike'
p4777
I4443
sS'suggest'
p4778
I2671
sS'forehead'
p4779
I5870
sS'complex'
p4780
I3517
sS'shawty'
p4781
I4604
sS'several'
p4782
I1733
sS'leftist'
p4783
I5523
sS'pick'
p4784
I683
sS'microphone'
p4785
I4730
sS'deflect'
p4786
I5695
sS'characters'
p4787
I1495
sS'cycle'
p4788
I3042
sS'shortly'
p4789
I4856
sS'charlie'
p4790
I3236
sS'ocean'
p4791
I3225
sS'greatest'
p4792
I1229
sS'mother'
p4793
I1386
sS'hearts'
p4794
I3484
sS'dads'
p4795
I5633
sS'laptop'
p4796
I3427
sS'\xf0\x9f\x8c\xb9'
p4797
I5482
sS'\xf0\x9f\x8c\xb8'
p4798
I4712
sS'eli'
p4799
I3618
sS'vid'
p4800
I3059
sS'scorpio'
p4801
I5210
sS'cherry'
p4802
I5205
sS'advanced'
p4803
I5221
sS'\xf0\x9f\x8c\x9a'
p4804
I4389
sS'gave'
p4805
I660
sS'bands'
p4806
I4167
sS'breaks'
p4807
I1858
sS'\xf0\x9f\x98\xad\xf0\x9f\x98\xad\xf0\x9f\x98\xad'
p4808
I1479
sS'cultural'
p4809
I4344
sS'judge'
p4810
I1605
sS'burns'
p4811
I4999
sS'rumor'
p4812
I5343
sS'apart'
p4813
I2391
sS'gifs'
p4814
I3565
sS'brutality'
p4815
I5871
sS'gift'
p4816
I1875
sS'hunt'
p4817
I5945
sS'dishonest'
p4818
I4534
sS'50'
p4819
I1379
sS'specific'
p4820
I2066
sS'officer'
p4821
I2173
sS'hung'
p4822
I4815
sS'matchup'
p4823
I5668
sS'orlando'
p4824
I4828
sS'jennifer'
p4825
I4471
sS'donald'
p4826
I290
sS'election'
p4827
I620
sS'escape'
p4828
I3969
sS'theyre'
p4829
I3874
sS'finna'
p4830
I4148
sS'armed'
p4831
I4134
sS'ice'
p4832
I949
sS'everything'
p4833
I313
sS'cnn'
p4834
I1091
sS'christmas'
p4835
I1637
sS'tht'
p4836
I5066
sS'core'
p4837
I3129
sS'deleted'
p4838
I1832
sS'corn'
p4839
I3184
sS'discount'
p4840
I3776
sS'chapter'
p4841
I4771
sS'attacks'
p4842
I1581
sS'choke'
p4843
I5332
sS'dinner'
p4844
I1011
sS'misleading'
p4845
I5341
sS'plus'
p4846
I741
sS'efforts'
p4847
I4728
sS'twitch'
p4848
I4594
sS'sept'
p4849
I3015
sS'facetime'
p4850
I4948
sS'duke'
p4851
I4536
sS'aha'
p4852
I5524
sS'presence'
p4853
I4345
sS'civil'
p4854
I2452
sS'ahh'
p4855
I2642
sS'ppl'
p4856
I579
sS'donated'
p4857
I5634
sS'deadass'
p4858
I1659
sS'existed'
p4859
I4430
sS'class'
p4860
I447
sS'gig'
p4861
I4854
sS'gif'
p4862
I1473
sS'anderson'
p4863
I5125
sS'fought'
p4864
I5266
sS'questionable'
p4865
I5537
sS'head'
p4866
I474
sS'medium'
p4867
I4805
sS'6'
p4868
I607
sS'heat'
p4869
I1842
sS'hear'
p4870
I333
sS'solar'
p4871
I5362
sS'removed'
p4872
I3490
sS'kenzo'
p4873
I3000
sS'versions'
p4874
I5961
sS'ruined'
p4875
I2744
sS'adore'
p4876
I5532
sS'90%'
p4877
I4367
sS'sometime'
p4878
I2355
sS'annoying'
p4879
I1249
sS'check'
p4880
I260
sS'pipe'
p4881
I4420
sS'nj'
p4882
I1717
sS'tix'
p4883
I3181
sS'no'
p4884
I49
sS'na'
p4885
I1971
sS'nc'
p4886
I3821
sS'tip'
p4887
I2300
sS'til'
p4888
I1939
sS'ny'
p4889
I585
sS'setting'
p4890
I2823
sS'papers'
p4891
I3947
sS'tie'
p4892
I2381
sS'picture'
p4893
I561
sS'football'
p4894
I727
sS'younger'
p4895
I3008
sS'faster'
p4896
I2986
sS'serious'
p4897
I708
sS'neighbors'
p4898
I3612
sS'coach'
p4899
I1392
sS'ron'
p4900
I4576
sS'affair'
p4901
I5832
sS'rob'
p4902
I2982
sS'ouch'
p4903
I4519
sS'leads'
p4904
I2530
sS'comments'
p4905
I1368
sS'row'
p4906
I1462
sS'environment'
p4907
I4418
sS'charge'
p4908
I1672
sS'promoting'
p4909
I4669
sS'advantage'
p4910
I3270
sS'cook'
p4911
I2081
sS'cool'
p4912
I293
sS'impressive'
p4913
I2478
sS'level'
p4914
I886
sS'posts'
p4915
I3123
sS'hawaii'
p4916
I4986
sS'standards'
p4917
I3265
sS'quick'
p4918
I993
sS'yall'
p4919
I1231
sS'pork'
p4920
I5135
sS'says'
p4921
I262
sS'porn'
p4922
I2285
sS'trend'
p4923
I2585
sS'\xf0\x9f\x93\xb7'
p4924
I5533
sS'cyber'
p4925
I2059
sS'colin'
p4926
I2494
sS'fear'
p4927
I1331
sS'drinks'
p4928
I2419
sS'stressful'
p4929
I4676
sS'stands'
p4930
I2953
sS'pleased'
p4931
I4577
sS'goes'
p4932
I582
sS'reply'
p4933
I1559
sS'angelina'
p4934
I3802
sS'water'
p4935
I732
sS'baseball'
p4936
I1523
sS'groups'
p4937
I2751
sS'confused'
p4938
I1032
sS'['
p4939
I1222
sS'healthy'
p4940
I1726
sS'guilty'
p4941
I2272
sS'weird'
p4942
I573
sS'shootings'
p4943
I4915
sS'problematic'
p4944
I4265
sS'compare'
p4945
I2772
sS'1st'
p4946
I843
sS'touchdown'
p4947
I4857
sS'peep'
p4948
I3429
sS'emmys'
p4949
I5048
sS'russell'
p4950
I5319
sS'sports'
p4951
I1294
sS'msm'
p4952
I2783
sS'andy'
p4953
I3226
sS'iphone'
p4954
I720
sS'memory'
p4955
I2431
sS'msg'
p4956
I4559
sS'prep'
p4957
I3507
sS'today'
p4958
I127
sS'plug'
p4959
I3470
sS'kerry'
p4960
I4720
sS'riot'
p4961
I3393
sS'sessions'
p4962
I5665
sS'chocolate'
p4963
I1541
sS'beers'
p4964
I4298
sS'cases'
p4965
I3508
sS'states'
p4966
I1215
sS'thousands'
p4967
I2675
sS'ms.'
p4968
I4832
sS'laughter'
p4969
I5879
sS'streak'
p4970
I4329
sS'trump'
p4971
I66
sS'stream'
p4972
I1313
sS'unarmed'
p4973
I4106
sS'dropped'
p4974
I1485
sS'counting'
p4975
I2901
sS'bigot'
p4976
I3859
sS'requirements'
p4977
I5685
sS'watching'
p4978
I286
sS'1'
p4979
I341
sS'fourth'
p4980
I5753
sS'endorsement'
p4981
I2766
sS'speaks'
p4982
I2260
sS'$100'
p4983
I3719
sS'unbelievable'
p4984
I2645
sS'huge'
p4985
I768
sS'fascist'
p4986
I5946
sS'islamic'
p4987
I2286
sS'heartbreaking'
p4988
I5993
sS'birthday'
p4989
I205
sS'tbh'
p4990
I551
sS'curry'
p4991
I4238
sS'exclusive'
p4992
I2301
sS'acts'
p4993
I4221
sS'joins'
p4994
I3806
sS'mainly'
p4995
I4821
sS'\xf0\x9f\x98\x82\xf0\x9f\x98\xad'
p4996
I4121
sS'blocked'
p4997
I1036
sS"he's"
p4998
I145
sS"he'd"
p4999
I2079
sS'platform'
p5000
I1823
sS'offers'
p5001
I4225
sS'\xf0\x9f\x98\x82\xf0\x9f\x98\x82'
p5002
I490
sS'happened'
p5003
I433
sS'lonely'
p5004
I4082
sS'moms'
p5005
I2980
sS'conversations'
p5006
I4868
sS'qualified'
p5007
I3964
sS'hamilton'
p5008
I5400
sS'feature'
p5009
I1840
sS'bath'
p5010
I3718
sS'term'
p5011
I1658
sS'name'
p5012
I319
sS'clutch'
p5013
I4918
sS'debating'
p5014
I3266
sS'catching'
p5015
I2684
sS'obsession'
p5016
I5848
sS'plans'
p5017
I1350
sS'hacker'
p5018
I5425
sS"america's"
p5019
I3098
sS'profit'
p5020
I4135
sS'factory'
p5021
I5025
sS"shouldn't"
p5022
I911
sS'hacked'
p5023
I3244
sS'theory'
p5024
I2019
sS'boobs'
p5025
I4898
sS'yup'
p5026
I776
sS'100%'
p5027
I1013
sS'motion'
p5028
I5094
sS'turn'
p5029
I657
sS'place'
p5030
I421
sS'swing'
p5031
I2606
sS'childhood'
p5032
I3764
sS'1000'
p5033
I5202
sS'con'
p5034
I2155
sS'pokemon'
p5035
I3847
sS'george'
p5036
I1603
sS'engineer'
p5037
I5211
sS'given'
p5038
I1038
sS'ian'
p5039
I4919
sS'district'
p5040
I4149
sS'stuck'
p5041
I1512
sS'plastic'
p5042
I4375
sS'returns'
p5043
I1710
sS'terrifying'
p5044
I3471
sS'convention'
p5045
I5244
sS'legally'
p5046
I5110
sS'white'
p5047
I274
sS'gives'
p5048
I1188
sS'hug'
p5049
I2493
sS'releases'
p5050
I3671
sS'season'
p5051
I320
sS'hun'
p5052
I5116
sS"men's"
p5053
I5924
sS'huh'
p5054
I1001
sS'cops'
p5055
I1207
sS'copy'
p5056
I1732
sS'population'
p5057
I3586
sS'wide'
p5058
I3322
sS'unfortunately'
p5059
I1263
sS'require'
p5060
I4066
sS'r'
p5061
I517
sS'coat'
p5062
I5171
sS'cards'
p5063
I1999
sS'poisoning'
p5064
I5910
sS'outcome'
p5065
I4083
sS'pre'
p5066
I3036
sS'pro'
p5067
I1622
sS'rent'
p5068
I2834
sS'sells'
p5069
I5350
sS'\xf0\x9f\x8e\xb6'
p5070
I3990
sS'any'
p5071
I167
sS'marathon'
p5072
I5253
sS'\xf0\x9f\x8e\x89'
p5073
I2323
sS'ideas'
p5074
I1493
sS'ideal'
p5075
I4280
sS'primaries'
p5076
I5151
sS'blunt'
p5077
I4876
sS'sure'
p5078
I171
sS'multiple'
p5079
I1880
sS'falls'
p5080
I3696
sS'donation'
p5081
I5635
sS'freshman'
p5082
I4615
sS'cleared'
p5083
I5650
sS'icon'
p5084
I3399
sS'considered'
p5085
I2130
sS'later'
p5086
I659
sS'hungry'
p5087
I2167
sS'hoboken'
p5088
I4963
sS'uncle'
p5089
I2663
sS'senior'
p5090
I2326
sS'vetted'
p5091
I5384
sS'cheat'
p5092
I3648
sS'recipe'
p5093
I3697
sS'hack'
p5094
I3274
sS'knicks'
p5095
I4027
sS'state'
p5096
I577
sS'crime'
p5097
I1307
sS'wood'
p5098
I4991
sS'believing'
p5099
I5754
sS'jazz'
p5100
I5925
sS'begging'
p5101
I4697
sS'trade'
p5102
I1275
sS'freaking'
p5103
I1806
sS'reveal'
p5104
I3684
sS'regarding'
p5105
I4168
sS'naked'
p5106
I3152
sS":')"
p5107
I4955
sS'clowns'
p5108
I3727
sS'predicted'
p5109
I5039
sS'bought'
p5110
I778
sS'discussing'
p5111
I2913
sS"y'all"
p5112
I387
sS'ignored'
p5113
I3437
sS'signs'
p5114
I2907
sS'college'
p5115
I672
sS'parking'
p5116
I1838
sS'apologies'
p5117
I3819
sS'ability'
p5118
I3431
sS'fails'
p5119
I4153
sS'farmers'
p5120
I5651
sS'managing'
p5121
I5138
sS'review'
p5122
I1377
sS'opening'
p5123
I1338
sS'weapons'
p5124
I3394
sS'outside'
p5125
I887
sS'25'
p5126
I1985
sS'guitar'
p5127
I4241
sS'cities'
p5128
I1872
sS'come'
p5129
I151
sS'reaction'
p5130
I2238
sS'quiet'
p5131
I2689
sS'contract'
p5132
I2940
sS'senator'
p5133
I3752
sS'duty'
p5134
I3853
sS'pakistan'
p5135
I3144
sS'color'
p5136
I919
sS'pot'
p5137
I3180
sS'period'
p5138
I1574
sS'pop'
p5139
I1602
sS'60'
p5140
I3511
sS'bizarre'
p5141
I4330
sS'poll'
p5142
I703
sS'poc'
p5143
I5475
sS'nicole'
p5144
I2479
sS'turkey'
p5145
I3984
sS'howard'
p5146
I2704
sS'50%'
p5147
I3820
sS'peaceful'
p5148
I3250
sS'featuring'
p5149
I4605
sS'hardly'
p5150
I3917
sS'500'
p5151
I3655
sS'direction'
p5152
I3052
sS'robbed'
p5153
I5881
sS'blessing'
p5154
I4505
sS'andrew'
p5155
I3720
sS'6s'
p5156
I5254
sS'minister'
p5157
I4431
sS'careful'
p5158
I2369
sS'irrelevant'
p5159
I3242
sS'champions'
p5160
I5059
sS'pilot'
p5161
I5001
sS'paying'
p5162
I1124
sS'myself'
p5163
I443
sS'cash'
p5164
I1670
sS'arnold'
p5165
I4485
sS'cast'
p5166
I1601
sS'someone'
p5167
I206
sS'ironic'
p5168
I4684
sS'helmet'
p5169
I5686
sS'author'
p5170
I3368
sS'$20'
p5171
I3558
sS'granted'
p5172
I4128
sS'bowl'
p5173
I1900
sS'trip'
p5174
I891
sS'buys'
p5175
I5462
sS'reminder'
p5176
I2174
sS'retweeting'
p5177
I4297
sS'events'
p5178
I1925
sS'week'
p5179
I217
sS'screenshot'
p5180
I3522
sS'driver'
p5181
I2110
sS'drives'
p5182
I3979
sS'weed'
p5183
I2540
sS'driven'
p5184
I5095
sS'changing'
p5185
I1972
sS'cartoon'
p5186
I4057
sS'ranch'
p5187
I5043
sS'magical'
p5188
I3672
sS'without'
p5189
I381
sS'relief'
p5190
I5002
sS'model'
p5191
I1507
sS'rahami'
p5192
I3483
sS'bodies'
p5193
I4788
sS'justify'
p5194
I5040
sS'when'
p5195
I60
sS'unconstitutional'
p5196
I4772
sS'actions'
p5197
I3109
sS'violent'
p5198
I3040
sS'kill'
p5199
I700
sS'captured'
p5200
I5911
sS'blow'
p5201
I1655
sS'announcement'
p5202
I3119
sS'feminist'
p5203
I5926
sS'rose'
p5204
I2290
sS"everyone's"
p5205
I2504
sS'seems'
p5206
I493
sS'except'
p5207
I826
sS'it\xe2\x80\x99s'
p5208
I662
sS'blog'
p5209
I1475
sS'lets'
p5210
I905
sS'ross'
p5211
I5459
sS'scheduled'
p5212
I5245
sS'kills'
p5213
I3104
sS'fridge'
p5214
I4176
sS'accepted'
p5215
I3457
sS'patrick'
p5216
I5588
sS'donations'
p5217
I4829
sS'tower'
p5218
I3044
sS'joking'
p5219
I3057
sS'competition'
p5220
I3231
sS'cowboys'
p5221
I4473
sS'provided'
p5222
I4900
sS'mood'
p5223
I2119
sS'stops'
p5224
I3291
sS'moon'
p5225
I1853
sS'provides'
p5226
I5561
sS'lmfao'
p5227
I611
sS'nails'
p5228
I3502
sS'terrified'
p5229
I4208
sS'_'
p5230
I0
sS'on'
p5231
I19
sS'jeez'
p5232
I4843
sS'ol'
p5233
I3523
sS'ok'
p5234
I252
sS'oh'
p5235
I128
sS'og'
p5236
I5049
sS'of'
p5237
I13
sS'discussed'
p5238
I5337
sS'stand'
p5239
I745
sS'yeezy'
p5240
I5333
sS'os'
p5241
I5246
sS'or'
p5242
I67
sS'op'
p5243
I5598
sS'ladies'
p5244
I1544
sS'communication'
p5245
I4540
sS'rising'
p5246
I4266
sS'gary'
p5247
I1545
sS'there'
p5248
I69
sS'racism'
p5249
I1155
sS'racist'
p5250
I505
sS'valley'
p5251
I2559
sS'energy'
p5252
I1621
sS'treat'
p5253
I2008
sS'lmaooo'
p5254
I1461
sS'cabinet'
p5255
I5660
sS'jus'
p5256
I3518
sS'promote'
p5257
I3619
sS'longer'
p5258
I945
sS'grass'
p5259
I5714
sS'strongly'
p5260
I4773
sS'toilet'
p5261
I3237
sS'taylor'
p5262
I3149
sS'taste'
p5263
I1576
sS'cbs'
p5264
I3726
sS'intro'
p5265
I3941
sS'tasty'
p5266
I4606
sS'politics'
p5267
I1291
sS'incorrect'
p5268
I4407
sS'heather'
p5269
I5849
sS'idiot'
p5270
I1014
sS'deserve'
p5271
I1059
sS'insurance'
p5272
I2933
sS'5'
p5273
I376
sS'trash'
p5274
I820
sS'immunity'
p5275
I3400
sS'championship'
p5276
I3504
sS'separate'
p5277
I3245
sS'spoilers'
p5278
I5547
sS'symbol'
p5279
I5813
sS'finale'
p5280
I3737
sS'includes'
p5281
I4667
sS'included'
p5282
I3213
sS'finals'
p5283
I4858
sS'lipstick'
p5284
I5583
sS'booked'
p5285
I4848
sS'blacks'
p5286
I1560
sS'calls'
p5287
I990
sS'wife'
p5288
I937
sS'invest'
p5289
I4448
sS'odds'
p5290
I3443
sS'wifi'
p5291
I2665
sS'websites'
p5292
I5715
sS'all'
p5293
I41
sS'diss'
p5294
I4452
sS'chinese'
p5295
I2207
sS'lack'
p5296
I1391
sS'follow'
p5297
I406
sS'alt'
p5298
I4587
sS'decisions'
p5299
I2602
sS'hmmm'
p5300
I2407
sS'apartment'
p5301
I1892
sS'wassup'
p5302
I5165
sS'opportunities'
p5303
I4572
sS'aaron'
p5304
I4088
sS'program'
p5305
I1677
sS'presentation'
p5306
I3302
sS'woman'
p5307
I556
sS'worse'
p5308
I623
sS'song'
p5309
I436
sS'far'
p5310
I389
sS'fav'
p5311
I1397
sS'fat'
p5312
I1146
sS'focus'
p5313
I1680
sS'worst'
p5314
I554
sS"we've"
p5315
I1108
sS'fam'
p5316
I882
sS'fab'
p5317
I4195
sS'sony'
p5318
I5502
sS'ticket'
p5319
I1148
sS'treating'
p5320
I4685
sS'list'
p5321
I564
sS'vibes'
p5322
I3083
sS'liars'
p5323
I4761
sS'rats'
p5324
I5599
sS'ten'
p5325
I2891
sS'tea'
p5326
I1453
sS'ted'
p5327
I1876
sS'tee'
p5328
I5648
sS'rate'
p5329
I2198
sS'design'
p5330
I1134
sS'nbc'
p5331
I3350
sS'nba'
p5332
I2527
sS'sue'
p5333
I3253
sS'sub'
p5334
I4859
sS'deeply'
p5335
I3848
sS'sum'
p5336
I5299
sS'anniversary'
p5337
I2894
sS'crush'
p5338
I2755
sS'version'
p5339
I972
sS'racing'
p5340
I4905
sS'guns'
p5341
I1564
sS'toes'
p5342
I5825
sS'christian'
p5343
I1854
sS'shoulda'
p5344
I3438
sS'allows'
p5345
I4255
sS'options'
p5346
I2177
sS'thankfully'
p5347
I4016
sS'suddenly'
p5348
I3559
sS'texts'
p5349
I3257
sS'semester'
p5350
I4562
sS'emoji'
p5351
I2054
sS'donuts'
p5352
I4444
sS'shits'
p5353
I2621
sS'markets'
p5354
I4920
sS'minor'
p5355
I4462
sS'flat'
p5356
I3232
sS'israel'
p5357
I1768
sS'knows'
p5358
I592
sS'definition'
p5359
I2146
sS'flag'
p5360
I2064
sS'basically'
p5361
I931
sS'known'
p5362
I1238
sS'glad'
p5363
I422
sS'debates'
p5364
I1464
sS'v'
p5365
I1225
sS'embarrassing'
p5366
I2392
sS'division'
p5367
I3001
sS'libertarian'
p5368
I5636
sS'yankee'
p5369
I5394
sS'court'
p5370
I1445
sS'goal'
p5371
I1449
sS'rather'
p5372
I785
sS'breaking'
p5373
I952
sS'explains'
p5374
I2509
sS'goat'
p5375
I2796
sS'sandwich'
p5376
I2445
sS'okay'
p5377
I396
sS'lighting'
p5378
I5334
sS'adventure'
p5379
I3278
sS'short'
p5380
I1033
sS'shady'
p5381
I5385
sS'departure'
p5382
I3557
sS'shade'
p5383
I2951
sS'???'
p5384
I358
sS"don't"
p5385
I53
sS'september'
p5386
I1458
sS'developed'
p5387
I4453
sS'brotha'
p5388
I3595
sS'mission'
p5389
I2556
sS'disabled'
p5390
I5258
sS'isnt'
p5391
I2804
sS'bigoted'
p5392
I5326
sS'avenue'
p5393
I5483
sS'islam'
p5394
I1042
sS'style'
p5395
I1286
sS'pray'
p5396
I1895
sS'resort'
p5397
I5567
sS'parts'
p5398
I2519
sS'stephen'
p5399
I5277
sS'bout'
p5400
I909
sS'soccer'
p5401
I2586
sS'might'
p5402
I285
sS'return'
p5403
I1540
sS'sucking'
p5404
I5177
sS'hunter'
p5405
I5484
sS'woulda'
p5406
I4563
sS'communities'
p5407
I3041
sS'bigger'
p5408
I1494
sS'friendship'
p5409
I3360
sS'weight'
p5410
I1790
sS'generation'
p5411
I2878
sS'peeps'
p5412
I3804
sS'brother'
p5413
I655
sS'expect'
p5414
I1164
sS'cups'
p5415
I4702
sS'prolly'
p5416
I3018
sS'alcohol'
p5417
I2423
sS'wondered'
p5418
I5947
sS'health'
p5419
I1029
sS'hill'
p5420
I2117
sS'friday'
p5421
I598
sS'forgive'
p5422
I4651
sS'cookie'
p5423
I3218
sS'teach'
p5424
I1734
sS'guest'
p5425
I2338
sS'thrown'
p5426
I4032
sS'thread'
p5427
I1171
sS"year's"
p5428
I3832
sS'threat'
p5429
I2218
sS'fallen'
p5430
I5410
sS'throws'
p5431
I3970
sS'feed'
p5432
I1418
sS'feel'
p5433
I214
sS'radical'
p5434
I3714
sS'fancy'
p5435
I3087
sS'feet'
p5436
I2026
sS'revolution'
p5437
I4393
sS'fees'
p5438
I5336
sS'passes'
p5439
I3544
sS'story'
p5440
I394
sS'"'
p5441
I21
sS'script'
p5442
I4779
sS'leading'
p5443
I2789
sS'interviews'
p5444
I3550
sS'comfy'
p5445
I5927
sS'lobby'
p5446
I5101
sS'passed'
p5447
I1728
sS'store'
p5448
I829
sS'headache'
p5449
I5126
sS'option'
p5450
I1623
sS'$$'
p5451
I4017
sS'hotel'
p5452
I1401
sS'luckily'
p5453
I4355
sS'$5'
p5454
I3849
sS'convinced'
p5455
I3377
sS'$1'
p5456
I5933
sS'king'
p5457
I1003
sS'kind'
p5458
I449
sS'double'
p5459
I1161
sS'illegals'
p5460
I5835
sS'dang'
p5461
I2512
sS'motivation'
p5462
I4048
sS'outstanding'
p5463
I4701
sS'suspicious'
p5464
I5285
sS'alike'
p5465
I5880
sS'wilson'
p5466
I4338
sS'nights'
p5467
I2058
sS'\xf0\x9f\x98\x9d'
p5468
I3190
sS'port'
p5469
I4938
sS'finding'
p5470
I1964
sS'added'
p5471
I1847
sS'electric'
p5472
I5136
sS'reach'
p5473
I2070
sS'\xf0\x9f\x98\x96'
p5474
I5808
sS'react'
p5475
I3889
sS'70'
p5476
I4118
sS'nothing'
p5477
I248
sS'seasons'
p5478
I3193
sS'constitution'
p5479
I2630
sS'won\xe2\x80\x99t'
p5480
I4011
sS'appreciation'
p5481
I5022
sS'windows'
p5482
I2821
sS'lying'
p5483
I756
sS'didn\xe2\x80\x99t'
p5484
I2403
sS'stfu'
p5485
I3292
sS'rts'
p5486
I5378
sS'rocket'
p5487
I4677
sS'grace'
p5488
I3930
sS'penalty'
p5489
I4745
sS'obama'
p5490
I363
sS'hip'
p5491
I3204
sS'his'
p5492
I78
sS'hit'
p5493
I418
sS'clinton\xe2\x80\x99s'
p5494
I4316
sS'alicia'
p5495
I3101
sS'longest'
p5496
I5542
sS'emails'
p5497
I1163
sS'investigate'
p5498
I4249
sS'activity'
p5499
I4424
sS'wrote'
p5500
I1468
sS'bars'
p5501
I3205
sS'art'
p5502
I974
sS'bart'
p5503
I3999
sS'dump'
p5504
I4624
sS'intelligence'
p5505
I3408
sS'defense'
p5506
I1022
sS'dumb'
p5507
I710
sS'are'
p5508
I25
sS'arm'
p5509
I2344
sS'recording'
p5510
I3117
sS'threats'
p5511
I3750
sS'nailed'
p5512
I4500
sS'various'
p5513
I4595
sS'corruption'
p5514
I2053
sS'solo'
p5515
I4638
sS'korea'
p5516
I5883
sS'recently'
p5517
I1833
sS'creating'
p5518
I3187
sS'sold'
p5519
I1212
sS'attention'
p5520
I992
sS'outfit'
p5521
I2564
sS'franchise'
p5522
I4498
sS'c'
p5523
I1251
sS'license'
p5524
I4541
sS'stop-and-frisk'
p5525
I5681
sS'roman'
p5526
I3481
sS'became'
p5527
I2223
sS'context'
p5528
I2105
sS'witch'
p5529
I2971
sS'bond'
p5530
I4503
sS'finds'
p5531
I2915
sS'flies'
p5532
I4833
sS'reasons'
p5533
I1644
sS'sweet'
p5534
I663
sS'dudes'
p5535
I2398
sS'village'
p5536
I5485
sS'pr'
p5537
I3741
sS'ps'
p5538
I2681
sS'pt'
p5539
I4520
sS'dub'
p5540
I4396
sS'political'
p5541
I892
sS'due'
p5542
I928
sS'whos'
p5543
I5469
sS'pc'
p5544
I2861
sS'pa'
p5545
I3054
sS'pf'
p5546
I5419
sS'brick'
p5547
I4361
sS'whoa'
p5548
I1824
sS'woke'
p5549
I1486
sS'pm'
p5550
I1314
sS'flight'
p5551
I1342
sS'demand'
p5552
I2370
sS'rocking'
p5553
I3816
sS'plants'
p5554
I5948
sS'georgia'
p5555
I5460
sS'frozen'
p5556
I4762
sS'nate'
p5557
I5557
sS'behavior'
p5558
I2464
sS'fernandez'
p5559
I4303
sS'theres'
p5560
I2661
sS'rip'
p5561
I1317
sS'disappointing'
p5562
I4490
sS'rid'
p5563
I2849
sS'shirt'
p5564
I920
sS'noooo'
p5565
I5972
sS'delicious'
p5566
I1766
sS'peoples'
p5567
I5212
sS'9'
p5568
I1109
sS'higher'
p5569
I2277
sS'moving'
p5570
I1097
sS'lower'
p5571
I2411
sS'depending'
p5572
I3991
sS'anybody'
p5573
I1703
sS'analysis'
p5574
I2688
sS'cheer'
p5575
I3656
sS'edge'
p5576
I2967
sS'networks'
p5577
I4404
sS'competitive'
p5578
I5050
sS'questions'
p5579
I622
sS'retired'
p5580
I5595
sS'prince'
p5581
I4391
sS'workers'
p5582
I2962
sS'customers'
p5583
I3003
sS'advocate'
p5584
I5669
sS'unlimited'
p5585
I5912
sS'ignore'
p5586
I2111
sS'fucking'
p5587
I256
sS'streaming'
p5588
I2144
sS'candy'
p5589
I1938
sS'js'
p5590
I4895
sS'crisis'
p5591
I2851
sS'meds'
p5592
I5051
sS'innovation'
p5593
I4816
sS'prod'
p5594
I2005
sS'prob'
p5595
I1948
sS'lmaoooo'
p5596
I2204
sS'lose'
p5597
I730
sS's/o'
p5598
I3509
sS'zombie'
p5599
I5194
sS'refuses'
p5600
I5041
sS'intense'
p5601
I5102
sS'range'
p5602
I4390
sS'hatred'
p5603
I3631
sS'wanna'
p5604
I340
sS'credible'
p5605
I5745
sS'mommy'
p5606
I5850
sS'momma'
p5607
I5949
sS'because'
p5608
I135
sS'impressed'
p5609
I2618
sS'xoxo'
p5610
I3343
sS'fast'
p5611
I958
sS"we're"
p5612
I281
sS'bruh'
p5613
I747
sS'files'
p5614
I5495
sS'mountains'
p5615
I5247
sS'prez'
p5616
I4969
sS'repeatedly'
p5617
I5470
sS'filed'
p5618
I4976
sS'junior'
p5619
I5146
sS'raising'
p5620
I4405
sS'fries'
p5621
I3167
sS"hasn't"
p5622
I1031
sS'pres'
p5623
I3922
sS'highlight'
p5624
I3019
sS'z'
p5625
I5619
sS'called'
p5626
I400
sS'freak'
p5627
I4006
sS'stick'
p5628
I1437
sS'warning'
p5629
I3202
sS'rally'
p5630
I1777
sS'peace'
p5631
I1310
sS'backs'
p5632
I4461
sS'nick'
p5633
I2377
sS'income'
p5634
I2792
sS'nice'
p5635
I220
sS'users'
p5636
I3389
sS'problems'
p5637
I1216
sS'helping'
p5638
I1587
sS'meaning'
p5639
I2244
sS'allowing'
p5640
I3485
sS'remake'
p5641
I5859
sS'remix'
p5642
I4069
sS'happier'
p5643
I5077
sS'vice'
p5644
I4212
sS'gr8'
p5645
I5420
sS'attacking'
p5646
I3939
sS'karma'
p5647
I4089
sS'narrative'
p5648
I2336
sS'intentional'
p5649
I3288
sS'once'
p5650
I440
sS'steve'
p5651
I1897
sS'gang'
p5652
I1940
sS'issues'
p5653
I853
sS'include'
p5654
I2335
sS'confirmation'
p5655
I4713
sS'mainstream'
p5656
I4889
sS'wishes'
p5657
I2983
sS'drinking'
p5658
I1092
sS'notes'
p5659
I2274
sS'deals'
p5660
I3206
sS"week's"
p5661
I3698
sS'polling'
p5662
I4564
sS'noted'
p5663
I5153
sS'someday'
p5664
I4313
sS'smaller'
p5665
I4250
sS"you'd"
p5666
I1135
sS'wrestling'
p5667
I3539
sS'traveling'
p5668
I5023
sS'reunion'
p5669
I4419
sS'ummm'
p5670
I4763
sS'folk'
p5671
I5783
sS"man's"
p5672
I4506
sS'waiting'
p5673
I526
sS'capital'
p5674
I5024
sS'nazis'
p5675
I4721
sS'chose'
p5676
I2900
sS'degree'
p5677
I3090
sS'pushing'
p5678
I2561
sS'sexy'
p5679
I1483
sS'metro'
p5680
I5433
sS'larger'
p5681
I4096
sS'leaving'
p5682
I1328
sS'suggests'
p5683
I4049
sS'apple'
p5684
I737
sS'egypt'
p5685
I5443
sS'app'
p5686
I514
sS'apt'
p5687
I5784
sS'api'
p5688
I5717
sS'duck'
p5689
I4340
sS'apply'
p5690
I2441
sS'fed'
p5691
I2283
sS'from'
p5692
I54
sS'figure'
p5693
I1090
sS'usa'
p5694
I1105
sS'iced'
p5695
I5222
sS'frog'
p5696
I4223
sS'few'
p5697
I414
sS'eagles'
p5698
I2798
sS'sort'
p5699
I1718
sS'clever'
p5700
I4242
sS'journalists'
p5701
I3271
sS'sore'
p5702
I5012
sS'penis'
p5703
I3809
sS'women'
p5704
I452
sS'topic'
p5705
I2227
sS'7pm'
p5706
I4609
sS'!\xe2\x80\xa6'
p5707
I2382
sS'anywhere'
p5708
I1586
sS'aight'
p5709
I4513
sS'proof'
p5710
I1446
sS'tap'
p5711
I3756
sS'thirsty'
p5712
I5525
sS'tax'
p5713
I815
sS'tag'
p5714
I1455
sS'something'
p5715
I198
sS'serial'
p5716
I5430
sS'rape'
p5717
I1141
sS'sis'
p5718
I1518
sS'sir'
p5719
I1140
sS'united'
p5720
I1883
sS'sit'
p5721
I1194
sS'six'
p5722
I1937
sS'brian'
p5723
I2316
sS'instead'
p5724
I610
sS'panic'
p5725
I3982
sS'that\xe2\x80\x99s'
p5726
I1265
sS'attend'
p5727
I3124
sS'abuse'
p5728
I2725
sS'taco'
p5729
I2760
sS'hahahaha'
p5730
I2186
sS'light'
p5731
I1055
sS'interrupted'
p5732
I5127
sS'honestly'
p5733
I496
sS'jolie'
p5734
I5543
sS',,'
p5735
I5174
sS'preparing'
p5736
I4483
sS'looks'
p5737
I218
sS'superior'
p5738
I5233
sS'permanent'
p5739
I5355
sS'choose'
p5740
I1337
sS'orange'
p5741
I1502
sS'covered'
p5742
I2175
sS'holiday'
p5743
I4001
sS'rsvp'
p5744
I5166
sS'flex'
p5745
I5093
sS'crash'
p5746
I2108
sS'material'
p5747
I3503
sS'flew'
p5748
I5307
sS'republican'
p5749
I1496
sS'articles'
p5750
I3526
sS"night's"
p5751
I3401
sS'edit'
p5752
I3510
sS'nfl'
p5753
I1283
sS'billy'
p5754
I4007
sS'trap'
p5755
I3464
sS'champ'
p5756
I4169
sS'bills'
p5757
I1994
sS'related'
p5758
I1553
sS'our'
p5759
I114
sS'80'
p5760
I4804
sS'out'
p5761
I48
sS'category'
p5762
I5220
sS'chaos'
p5763
I5526
sS'honorable'
p5764
I5589
sS'we\xe2\x80\x99re'
p5765
I3273
sS'supports'
p5766
I2200
sS'york'
p5767
I575
sS'dumpster'
p5768
I3604
sS'organic'
p5769
I5928
sS'g'
p5770
I1417
sS'crashed'
p5771
I5372
sS'fitzpatrick'
p5772
I5956
sS'conversation'
p5773
I1481
sS'4th'
p5774
I1988
sS'hence'
p5775
I4012
sS"doesn't"
p5776
I208
sS'unknown'
p5777
I5527
sS'accent'
p5778
I3906
sS'priority'
p5779
I4917
sS'their'
p5780
I141
sS"god's"
p5781
I4561
sS'slides'
p5782
I5797
sS'july'
p5783
I4181
sS'boring'
p5784
I1811
sS'tommy'
p5785
I4216
sS'patients'
p5786
I4477
sS'clip'
p5787
I2595
sS'linked'
p5788
I5078
sS'afraid'
p5789
I1664
sS'angle'
p5790
I5383
sS'russians'
p5791
I5352
sS'skittles'
p5792
I1735
sS'agency'
p5793
I4412
sS'bagel'
p5794
I5957
sS'which'
p5795
I237
sS'asshole'
p5796
I1629
sS'='
p5797
I636
sS'knees'
p5798
I5696
sS'collaboration'
p5799
I5548
sS'who'
p5800
I72
sS'cracking'
p5801
I4844
sS'why'
p5802
I75
sS'deny'
p5803
I3460
sS'looked'
p5804
I823
sS'goals'
p5805
I2179
sS'latinos'
p5806
I4890
sS'chances'
p5807
I3569
sS'electoral'
p5808
I4469
sS'agreed'
p5809
I1175
sS'planning'
p5810
I1850
sS'democrats'
p5811
I1797
sS'chicken'
p5812
I1219
sS'feat'
p5813
I4714
sS'debate'
p5814
I213
sS'highest'
p5815
I3842
sS'?...'
p5816
I5627
sS'candidates'
p5817
I1365
sS'lemme'
p5818
I2307
sS'combo'
p5819
I3817
sS'local'
p5820
I1395
sS'sued'
p5821
I4927
sS'cuba'
p5822
I5011
sS'midnight'
p5823
I3320
sS'dope'
p5824
I1289
sS'99%'
p5825
I5814
sS'awww'
p5826
I1857
sS'ones'
p5827
I641
sS'cubs'
p5828
I5234
sS'words'
p5829
I555
sS'chips'
p5830
I3153
sS'donate'
p5831
I3110
sS'ended'
p5832
I1762
sS'married'
p5833
I1657
sS'qb'
p5834
I1480
sS'view'
p5835
I1125
sS'knowing'
p5836
I1931
sS'responses'
p5837
I4977
sS'closer'
p5838
I1809
sS'cole'
p5839
I4687
sS'computer'
p5840
I2257
sS'closet'
p5841
I4625
sS'genius'
p5842
I2491
sS'closed'
p5843
I2194
sS'stories'
p5844
I1435
sS'pants'
p5845
I1398
sS'exam'
p5846
I4406
sS'trynna'
p5847
I4877
sS'amen'
p5848
I2724
sS'joy'
p5849
I2513
sS'embarrassment'
p5850
I4869
sS'job'
p5851
I377
sS'joe'
p5852
I1373
sS'spoil'
p5853
I5958
sS'swift'
p5854
I4008
sS'jon'
p5855
I3402
sS'april'
p5856
I4224
sS'atleast'
p5857
I4551
sS'bronx'
p5858
I3037
sS'wall'
p5859
I1122
sS'walk'
p5860
I867
sS'subscribe'
p5861
I4295
sS'respect'
p5862
I855
sS'decent'
p5863
I2067
sS'responds'
p5864
I4789
sS'literal'
p5865
I4806
sS'bby'
p5866
I4573
sS'bbq'
p5867
I4144
sS'mike'
p5868
I1174
sS'hmu'
p5869
I2979
sS'hmm'
p5870
I1536
sS'present'
p5871
I2011
sS'abandoned'
p5872
I5994
sS'unlike'
p5873
I3188
sS'vanilla'
p5874
I5544
sS'choices'
p5875
I2468
sS'will'
p5876
I61
sS'stunning'
p5877
I2531
sS'wild'
p5878
I994
sS'~'
p5879
I773
sS'supply'
p5880
I3786
sS'refs'
p5881
I5736
sS'thus'
p5882
I3753
sS'avi'
p5883
I2025
sS'thug'
p5884
I4200
sS'ave'
p5885
I3303
sS'whore'
p5886
I5152
sS'perhaps'
p5887
I1346
sS'cross'
p5888
I2872
sS'eric'
p5889
I2348
sS'member'
p5890
I2310
sS'largest'
p5891
I4163
sS'gets'
p5892
I413
sS'difficult'
p5893
I2314
sS'yooo'
p5894
I5128
sS'slave'
p5895
I5873
sS'promo'
p5896
I4031
sS'premiere'
p5897
I2627
sS'disagree'
p5898
I1607
sS'collab'
p5899
I5393
sS'beast'
p5900
I2991
sS'coaches'
p5901
I4565
sS'student'
p5902
I1750
sS'collar'
p5903
I5768
sS'warming'
p5904
I4075
sS'approve'
p5905
I4282
sS'fighting'
p5906
I1298
sS'english'
p5907
I1645
sS'\xe2\x98\xb9'
p5908
I1748
sS'cried'
p5909
I2762
sS'heavily'
p5910
I5300
sS'percent'
p5911
I3175
sS"should've"
p5912
I1650
sS'recap'
p5913
I5678
sS'happiness'
p5914
I3531
sS'console'
p5915
I5353
sS'bell'
p5916
I3079
sS'smith'
p5917
I2400
sS'discuss'
p5918
I1489
sS'book'
p5919
I485
sS'attractive'
p5920
I3628
sS'myth'
p5921
I5013
sS"who's"
p5922
I613
sS'protesters'
p5923
I3378
sS'know'
p5924
I59
sS'nor'
p5925
I2397
sS'press'
p5926
I1048
sS'10/10'
p5927
I4971
sS'racists'
p5928
I2701
sS'helpful'
p5929
I2610
sS'miami'
p5930
I2542
sS'loser'
p5931
I1786
sS'loses'
p5932
I3160
sS'james'
p5933
I1080
sS'nigga'
p5934
I653
sS'scared'
p5935
I1136
sS'searching'
p5936
I4042
sS'tumblr'
p5937
I4160
sS'platforms'
p5938
I5851
sS'growth'
p5939
I3570
sS'empire'
p5940
I3857
sS'scares'
p5941
I5901
sS'jeremy'
p5942
I4939
sS'lead'
p5943
I1018
sS'lean'
p5944
I5067
sS'14th'
p5945
I4491
sS'leader'
p5946
I1649
sS'ripped'
p5947
I4578
sS'murdered'
p5948
I3337
sS'stay'
p5949
I437
sS'rare'
p5950
I2768
sS'extension'
p5951
I5600
sS'getting'
p5952
I207
sS'column'
p5953
I3611
sS'universe'
p5954
I1792
sS'shipping'
p5955
I3605
sS'swear'
p5956
I1210
sS'sweat'
p5957
I3835
sS'autocorrect'
p5958
I5630
sS'own'
p5959
I332
sS'owe'
p5960
I3883
sS'headphone'
p5961
I4704
sS'weather'
p5962
I948
sS'promise'
p5963
I2055
sS'brush'
p5964
I4509
sS'registration'
p5965
I5223
sS'eh'
p5966
I1953
sS'convicted'
p5967
I5061
sS'van'
p5968
I3766
sS'transfer'
p5969
I4607
sS'*'
p5970
I2168
sS'apps'
p5971
I1936
sS'kidding'
p5972
I1525
sS'triggered'
p5973
I5014
sS"i've"
p5974
I183
sS'funds'
p5975
I3409
sS'bitches'
p5976
I1775
sS'volume'
p5977
I4860
sS'made'
p5978
I221
sS'tactics'
p5979
I5852
sS'whether'
p5980
I1687
sS'protesting'
p5981
I4790
sS'record'
p5982
I888
sS'below'
p5983
I3131
sS'cake'
p5984
I1829
sS'cmon'
p5985
I3168
sS'---'
p5986
I3055
sS'goodness'
p5987
I2593
sS'happen'
p5988
I510
sS'incredible'
p5989
I1104
sS'boot'
p5990
I4438
sS'other'
p5991
I194
sS'boom'
p5992
I3106
sS'sick'
p5993
I574
sS'incredibly'
p5994
I2095
sS'conclusion'
p5995
I4537
sS'kinds'
p5996
I4114
sS'june'
p5997
I4754
sS'kinda'
p5998
I726
sS'intentionally'
p5999
I5687
s.